
Bootloader.elf:     file format elf32-littlearm

Sections:
Idx Name          Size      VMA       LMA       File off  Algn
  0 .isr_vector   00000194  08000000  08000000  00010000  2**0
                  CONTENTS, ALLOC, LOAD, READONLY, DATA
  1 .text         000030fc  08000198  08000198  00010198  2**3
                  CONTENTS, ALLOC, LOAD, READONLY, CODE
  2 .rodata       00000030  08003294  08003294  00013294  2**0
                  CONTENTS, ALLOC, LOAD, READONLY, DATA
  3 .ARM.extab    00000000  080032c4  080032c4  00020010  2**0
                  CONTENTS
  4 .ARM          00000008  080032c4  080032c4  000132c4  2**2
                  CONTENTS, ALLOC, LOAD, READONLY, DATA
  5 .preinit_array 00000000  080032cc  080032cc  00020010  2**0
                  CONTENTS, ALLOC, LOAD, DATA
  6 .init_array   00000004  080032cc  080032cc  000132cc  2**2
                  CONTENTS, ALLOC, LOAD, DATA
  7 .fini_array   00000004  080032d0  080032d0  000132d0  2**2
                  CONTENTS, ALLOC, LOAD, DATA
  8 .data         00000010  20000000  080032d4  00020000  2**2
                  CONTENTS, ALLOC, LOAD, DATA
  9 .bss          000003dc  20000010  080032e4  00020010  2**2
                  ALLOC
 10 ._user_heap_stack 00000604  200003ec  080032e4  000203ec  2**0
                  ALLOC
 11 .ARM.attributes 00000030  00000000  00000000  00020010  2**0
                  CONTENTS, READONLY
 12 .comment      00000043  00000000  00000000  00020040  2**0
                  CONTENTS, READONLY
 13 .debug_frame  000001f4  00000000  00000000  00020084  2**2
                  CONTENTS, READONLY, DEBUGGING, OCTETS

Disassembly of section .text:

08000198 <__do_global_dtors_aux>:
 8000198:	b510      	push	{r4, lr}
 800019a:	4c05      	ldr	r4, [pc, #20]	; (80001b0 <__do_global_dtors_aux+0x18>)
 800019c:	7823      	ldrb	r3, [r4, #0]
 800019e:	b933      	cbnz	r3, 80001ae <__do_global_dtors_aux+0x16>
 80001a0:	4b04      	ldr	r3, [pc, #16]	; (80001b4 <__do_global_dtors_aux+0x1c>)
 80001a2:	b113      	cbz	r3, 80001aa <__do_global_dtors_aux+0x12>
 80001a4:	4804      	ldr	r0, [pc, #16]	; (80001b8 <__do_global_dtors_aux+0x20>)
 80001a6:	f3af 8000 	nop.w
 80001aa:	2301      	movs	r3, #1
 80001ac:	7023      	strb	r3, [r4, #0]
 80001ae:	bd10      	pop	{r4, pc}
 80001b0:	20000010 	.word	0x20000010
 80001b4:	00000000 	.word	0x00000000
 80001b8:	0800327c 	.word	0x0800327c

080001bc <frame_dummy>:
 80001bc:	b508      	push	{r3, lr}
 80001be:	4b03      	ldr	r3, [pc, #12]	; (80001cc <frame_dummy+0x10>)
 80001c0:	b11b      	cbz	r3, 80001ca <frame_dummy+0xe>
 80001c2:	4903      	ldr	r1, [pc, #12]	; (80001d0 <frame_dummy+0x14>)
 80001c4:	4803      	ldr	r0, [pc, #12]	; (80001d4 <frame_dummy+0x18>)
 80001c6:	f3af 8000 	nop.w
 80001ca:	bd08      	pop	{r3, pc}
 80001cc:	00000000 	.word	0x00000000
 80001d0:	20000014 	.word	0x20000014
 80001d4:	0800327c 	.word	0x0800327c

080001d8 <strlen>:
 80001d8:	4603      	mov	r3, r0
 80001da:	f813 2b01 	ldrb.w	r2, [r3], #1
 80001de:	2a00      	cmp	r2, #0
 80001e0:	d1fb      	bne.n	80001da <strlen+0x2>
 80001e2:	1a18      	subs	r0, r3, r0
 80001e4:	3801      	subs	r0, #1
 80001e6:	4770      	bx	lr

080001e8 <__aeabi_drsub>:
 80001e8:	f081 4100 	eor.w	r1, r1, #2147483648	; 0x80000000
 80001ec:	e002      	b.n	80001f4 <__adddf3>
 80001ee:	bf00      	nop

080001f0 <__aeabi_dsub>:
 80001f0:	f083 4300 	eor.w	r3, r3, #2147483648	; 0x80000000

080001f4 <__adddf3>:
 80001f4:	b530      	push	{r4, r5, lr}
 80001f6:	ea4f 0441 	mov.w	r4, r1, lsl #1
 80001fa:	ea4f 0543 	mov.w	r5, r3, lsl #1
 80001fe:	ea94 0f05 	teq	r4, r5
 8000202:	bf08      	it	eq
 8000204:	ea90 0f02 	teqeq	r0, r2
 8000208:	bf1f      	itttt	ne
 800020a:	ea54 0c00 	orrsne.w	ip, r4, r0
 800020e:	ea55 0c02 	orrsne.w	ip, r5, r2
 8000212:	ea7f 5c64 	mvnsne.w	ip, r4, asr #21
 8000216:	ea7f 5c65 	mvnsne.w	ip, r5, asr #21
 800021a:	f000 80e2 	beq.w	80003e2 <__adddf3+0x1ee>
 800021e:	ea4f 5454 	mov.w	r4, r4, lsr #21
 8000222:	ebd4 5555 	rsbs	r5, r4, r5, lsr #21
 8000226:	bfb8      	it	lt
 8000228:	426d      	neglt	r5, r5
 800022a:	dd0c      	ble.n	8000246 <__adddf3+0x52>
 800022c:	442c      	add	r4, r5
 800022e:	ea80 0202 	eor.w	r2, r0, r2
 8000232:	ea81 0303 	eor.w	r3, r1, r3
 8000236:	ea82 0000 	eor.w	r0, r2, r0
 800023a:	ea83 0101 	eor.w	r1, r3, r1
 800023e:	ea80 0202 	eor.w	r2, r0, r2
 8000242:	ea81 0303 	eor.w	r3, r1, r3
 8000246:	2d36      	cmp	r5, #54	; 0x36
 8000248:	bf88      	it	hi
 800024a:	bd30      	pophi	{r4, r5, pc}
 800024c:	f011 4f00 	tst.w	r1, #2147483648	; 0x80000000
 8000250:	ea4f 3101 	mov.w	r1, r1, lsl #12
 8000254:	f44f 1c80 	mov.w	ip, #1048576	; 0x100000
 8000258:	ea4c 3111 	orr.w	r1, ip, r1, lsr #12
 800025c:	d002      	beq.n	8000264 <__adddf3+0x70>
 800025e:	4240      	negs	r0, r0
 8000260:	eb61 0141 	sbc.w	r1, r1, r1, lsl #1
 8000264:	f013 4f00 	tst.w	r3, #2147483648	; 0x80000000
 8000268:	ea4f 3303 	mov.w	r3, r3, lsl #12
 800026c:	ea4c 3313 	orr.w	r3, ip, r3, lsr #12
 8000270:	d002      	beq.n	8000278 <__adddf3+0x84>
 8000272:	4252      	negs	r2, r2
 8000274:	eb63 0343 	sbc.w	r3, r3, r3, lsl #1
 8000278:	ea94 0f05 	teq	r4, r5
 800027c:	f000 80a7 	beq.w	80003ce <__adddf3+0x1da>
 8000280:	f1a4 0401 	sub.w	r4, r4, #1
 8000284:	f1d5 0e20 	rsbs	lr, r5, #32
 8000288:	db0d      	blt.n	80002a6 <__adddf3+0xb2>
 800028a:	fa02 fc0e 	lsl.w	ip, r2, lr
 800028e:	fa22 f205 	lsr.w	r2, r2, r5
 8000292:	1880      	adds	r0, r0, r2
 8000294:	f141 0100 	adc.w	r1, r1, #0
 8000298:	fa03 f20e 	lsl.w	r2, r3, lr
 800029c:	1880      	adds	r0, r0, r2
 800029e:	fa43 f305 	asr.w	r3, r3, r5
 80002a2:	4159      	adcs	r1, r3
 80002a4:	e00e      	b.n	80002c4 <__adddf3+0xd0>
 80002a6:	f1a5 0520 	sub.w	r5, r5, #32
 80002aa:	f10e 0e20 	add.w	lr, lr, #32
 80002ae:	2a01      	cmp	r2, #1
 80002b0:	fa03 fc0e 	lsl.w	ip, r3, lr
 80002b4:	bf28      	it	cs
 80002b6:	f04c 0c02 	orrcs.w	ip, ip, #2
 80002ba:	fa43 f305 	asr.w	r3, r3, r5
 80002be:	18c0      	adds	r0, r0, r3
 80002c0:	eb51 71e3 	adcs.w	r1, r1, r3, asr #31
 80002c4:	f001 4500 	and.w	r5, r1, #2147483648	; 0x80000000
 80002c8:	d507      	bpl.n	80002da <__adddf3+0xe6>
 80002ca:	f04f 0e00 	mov.w	lr, #0
 80002ce:	f1dc 0c00 	rsbs	ip, ip, #0
 80002d2:	eb7e 0000 	sbcs.w	r0, lr, r0
 80002d6:	eb6e 0101 	sbc.w	r1, lr, r1
 80002da:	f5b1 1f80 	cmp.w	r1, #1048576	; 0x100000
 80002de:	d31b      	bcc.n	8000318 <__adddf3+0x124>
 80002e0:	f5b1 1f00 	cmp.w	r1, #2097152	; 0x200000
 80002e4:	d30c      	bcc.n	8000300 <__adddf3+0x10c>
 80002e6:	0849      	lsrs	r1, r1, #1
 80002e8:	ea5f 0030 	movs.w	r0, r0, rrx
 80002ec:	ea4f 0c3c 	mov.w	ip, ip, rrx
 80002f0:	f104 0401 	add.w	r4, r4, #1
 80002f4:	ea4f 5244 	mov.w	r2, r4, lsl #21
 80002f8:	f512 0f80 	cmn.w	r2, #4194304	; 0x400000
 80002fc:	f080 809a 	bcs.w	8000434 <__adddf3+0x240>
 8000300:	f1bc 4f00 	cmp.w	ip, #2147483648	; 0x80000000
 8000304:	bf08      	it	eq
 8000306:	ea5f 0c50 	movseq.w	ip, r0, lsr #1
 800030a:	f150 0000 	adcs.w	r0, r0, #0
 800030e:	eb41 5104 	adc.w	r1, r1, r4, lsl #20
 8000312:	ea41 0105 	orr.w	r1, r1, r5
 8000316:	bd30      	pop	{r4, r5, pc}
 8000318:	ea5f 0c4c 	movs.w	ip, ip, lsl #1
 800031c:	4140      	adcs	r0, r0
 800031e:	eb41 0101 	adc.w	r1, r1, r1
 8000322:	3c01      	subs	r4, #1
 8000324:	bf28      	it	cs
 8000326:	f5b1 1f80 	cmpcs.w	r1, #1048576	; 0x100000
 800032a:	d2e9      	bcs.n	8000300 <__adddf3+0x10c>
 800032c:	f091 0f00 	teq	r1, #0
 8000330:	bf04      	itt	eq
 8000332:	4601      	moveq	r1, r0
 8000334:	2000      	moveq	r0, #0
 8000336:	fab1 f381 	clz	r3, r1
 800033a:	bf08      	it	eq
 800033c:	3320      	addeq	r3, #32
 800033e:	f1a3 030b 	sub.w	r3, r3, #11
 8000342:	f1b3 0220 	subs.w	r2, r3, #32
 8000346:	da0c      	bge.n	8000362 <__adddf3+0x16e>
 8000348:	320c      	adds	r2, #12
 800034a:	dd08      	ble.n	800035e <__adddf3+0x16a>
 800034c:	f102 0c14 	add.w	ip, r2, #20
 8000350:	f1c2 020c 	rsb	r2, r2, #12
 8000354:	fa01 f00c 	lsl.w	r0, r1, ip
 8000358:	fa21 f102 	lsr.w	r1, r1, r2
 800035c:	e00c      	b.n	8000378 <__adddf3+0x184>
 800035e:	f102 0214 	add.w	r2, r2, #20
 8000362:	bfd8      	it	le
 8000364:	f1c2 0c20 	rsble	ip, r2, #32
 8000368:	fa01 f102 	lsl.w	r1, r1, r2
 800036c:	fa20 fc0c 	lsr.w	ip, r0, ip
 8000370:	bfdc      	itt	le
 8000372:	ea41 010c 	orrle.w	r1, r1, ip
 8000376:	4090      	lslle	r0, r2
 8000378:	1ae4      	subs	r4, r4, r3
 800037a:	bfa2      	ittt	ge
 800037c:	eb01 5104 	addge.w	r1, r1, r4, lsl #20
 8000380:	4329      	orrge	r1, r5
 8000382:	bd30      	popge	{r4, r5, pc}
 8000384:	ea6f 0404 	mvn.w	r4, r4
 8000388:	3c1f      	subs	r4, #31
 800038a:	da1c      	bge.n	80003c6 <__adddf3+0x1d2>
 800038c:	340c      	adds	r4, #12
 800038e:	dc0e      	bgt.n	80003ae <__adddf3+0x1ba>
 8000390:	f104 0414 	add.w	r4, r4, #20
 8000394:	f1c4 0220 	rsb	r2, r4, #32
 8000398:	fa20 f004 	lsr.w	r0, r0, r4
 800039c:	fa01 f302 	lsl.w	r3, r1, r2
 80003a0:	ea40 0003 	orr.w	r0, r0, r3
 80003a4:	fa21 f304 	lsr.w	r3, r1, r4
 80003a8:	ea45 0103 	orr.w	r1, r5, r3
 80003ac:	bd30      	pop	{r4, r5, pc}
 80003ae:	f1c4 040c 	rsb	r4, r4, #12
 80003b2:	f1c4 0220 	rsb	r2, r4, #32
 80003b6:	fa20 f002 	lsr.w	r0, r0, r2
 80003ba:	fa01 f304 	lsl.w	r3, r1, r4
 80003be:	ea40 0003 	orr.w	r0, r0, r3
 80003c2:	4629      	mov	r1, r5
 80003c4:	bd30      	pop	{r4, r5, pc}
 80003c6:	fa21 f004 	lsr.w	r0, r1, r4
 80003ca:	4629      	mov	r1, r5
 80003cc:	bd30      	pop	{r4, r5, pc}
 80003ce:	f094 0f00 	teq	r4, #0
 80003d2:	f483 1380 	eor.w	r3, r3, #1048576	; 0x100000
 80003d6:	bf06      	itte	eq
 80003d8:	f481 1180 	eoreq.w	r1, r1, #1048576	; 0x100000
 80003dc:	3401      	addeq	r4, #1
 80003de:	3d01      	subne	r5, #1
 80003e0:	e74e      	b.n	8000280 <__adddf3+0x8c>
 80003e2:	ea7f 5c64 	mvns.w	ip, r4, asr #21
 80003e6:	bf18      	it	ne
 80003e8:	ea7f 5c65 	mvnsne.w	ip, r5, asr #21
 80003ec:	d029      	beq.n	8000442 <__adddf3+0x24e>
 80003ee:	ea94 0f05 	teq	r4, r5
 80003f2:	bf08      	it	eq
 80003f4:	ea90 0f02 	teqeq	r0, r2
 80003f8:	d005      	beq.n	8000406 <__adddf3+0x212>
 80003fa:	ea54 0c00 	orrs.w	ip, r4, r0
 80003fe:	bf04      	itt	eq
 8000400:	4619      	moveq	r1, r3
 8000402:	4610      	moveq	r0, r2
 8000404:	bd30      	pop	{r4, r5, pc}
 8000406:	ea91 0f03 	teq	r1, r3
 800040a:	bf1e      	ittt	ne
 800040c:	2100      	movne	r1, #0
 800040e:	2000      	movne	r0, #0
 8000410:	bd30      	popne	{r4, r5, pc}
 8000412:	ea5f 5c54 	movs.w	ip, r4, lsr #21
 8000416:	d105      	bne.n	8000424 <__adddf3+0x230>
 8000418:	0040      	lsls	r0, r0, #1
 800041a:	4149      	adcs	r1, r1
 800041c:	bf28      	it	cs
 800041e:	f041 4100 	orrcs.w	r1, r1, #2147483648	; 0x80000000
 8000422:	bd30      	pop	{r4, r5, pc}
 8000424:	f514 0480 	adds.w	r4, r4, #4194304	; 0x400000
 8000428:	bf3c      	itt	cc
 800042a:	f501 1180 	addcc.w	r1, r1, #1048576	; 0x100000
 800042e:	bd30      	popcc	{r4, r5, pc}
 8000430:	f001 4500 	and.w	r5, r1, #2147483648	; 0x80000000
 8000434:	f045 41fe 	orr.w	r1, r5, #2130706432	; 0x7f000000
 8000438:	f441 0170 	orr.w	r1, r1, #15728640	; 0xf00000
 800043c:	f04f 0000 	mov.w	r0, #0
 8000440:	bd30      	pop	{r4, r5, pc}
 8000442:	ea7f 5c64 	mvns.w	ip, r4, asr #21
 8000446:	bf1a      	itte	ne
 8000448:	4619      	movne	r1, r3
 800044a:	4610      	movne	r0, r2
 800044c:	ea7f 5c65 	mvnseq.w	ip, r5, asr #21
 8000450:	bf1c      	itt	ne
 8000452:	460b      	movne	r3, r1
 8000454:	4602      	movne	r2, r0
 8000456:	ea50 3401 	orrs.w	r4, r0, r1, lsl #12
 800045a:	bf06      	itte	eq
 800045c:	ea52 3503 	orrseq.w	r5, r2, r3, lsl #12
 8000460:	ea91 0f03 	teqeq	r1, r3
 8000464:	f441 2100 	orrne.w	r1, r1, #524288	; 0x80000
 8000468:	bd30      	pop	{r4, r5, pc}
 800046a:	bf00      	nop

0800046c <__aeabi_ui2d>:
 800046c:	f090 0f00 	teq	r0, #0
 8000470:	bf04      	itt	eq
 8000472:	2100      	moveq	r1, #0
 8000474:	4770      	bxeq	lr
 8000476:	b530      	push	{r4, r5, lr}
 8000478:	f44f 6480 	mov.w	r4, #1024	; 0x400
 800047c:	f104 0432 	add.w	r4, r4, #50	; 0x32
 8000480:	f04f 0500 	mov.w	r5, #0
 8000484:	f04f 0100 	mov.w	r1, #0
 8000488:	e750      	b.n	800032c <__adddf3+0x138>
 800048a:	bf00      	nop

0800048c <__aeabi_i2d>:
 800048c:	f090 0f00 	teq	r0, #0
 8000490:	bf04      	itt	eq
 8000492:	2100      	moveq	r1, #0
 8000494:	4770      	bxeq	lr
 8000496:	b530      	push	{r4, r5, lr}
 8000498:	f44f 6480 	mov.w	r4, #1024	; 0x400
 800049c:	f104 0432 	add.w	r4, r4, #50	; 0x32
 80004a0:	f010 4500 	ands.w	r5, r0, #2147483648	; 0x80000000
 80004a4:	bf48      	it	mi
 80004a6:	4240      	negmi	r0, r0
 80004a8:	f04f 0100 	mov.w	r1, #0
 80004ac:	e73e      	b.n	800032c <__adddf3+0x138>
 80004ae:	bf00      	nop

080004b0 <__aeabi_f2d>:
 80004b0:	0042      	lsls	r2, r0, #1
 80004b2:	ea4f 01e2 	mov.w	r1, r2, asr #3
 80004b6:	ea4f 0131 	mov.w	r1, r1, rrx
 80004ba:	ea4f 7002 	mov.w	r0, r2, lsl #28
 80004be:	bf1f      	itttt	ne
 80004c0:	f012 437f 	andsne.w	r3, r2, #4278190080	; 0xff000000
 80004c4:	f093 4f7f 	teqne	r3, #4278190080	; 0xff000000
 80004c8:	f081 5160 	eorne.w	r1, r1, #939524096	; 0x38000000
 80004cc:	4770      	bxne	lr
 80004ce:	f032 427f 	bics.w	r2, r2, #4278190080	; 0xff000000
 80004d2:	bf08      	it	eq
 80004d4:	4770      	bxeq	lr
 80004d6:	f093 4f7f 	teq	r3, #4278190080	; 0xff000000
 80004da:	bf04      	itt	eq
 80004dc:	f441 2100 	orreq.w	r1, r1, #524288	; 0x80000
 80004e0:	4770      	bxeq	lr
 80004e2:	b530      	push	{r4, r5, lr}
 80004e4:	f44f 7460 	mov.w	r4, #896	; 0x380
 80004e8:	f001 4500 	and.w	r5, r1, #2147483648	; 0x80000000
 80004ec:	f021 4100 	bic.w	r1, r1, #2147483648	; 0x80000000
 80004f0:	e71c      	b.n	800032c <__adddf3+0x138>
 80004f2:	bf00      	nop

080004f4 <__aeabi_ul2d>:
 80004f4:	ea50 0201 	orrs.w	r2, r0, r1
 80004f8:	bf08      	it	eq
 80004fa:	4770      	bxeq	lr
 80004fc:	b530      	push	{r4, r5, lr}
 80004fe:	f04f 0500 	mov.w	r5, #0
 8000502:	e00a      	b.n	800051a <__aeabi_l2d+0x16>

08000504 <__aeabi_l2d>:
 8000504:	ea50 0201 	orrs.w	r2, r0, r1
 8000508:	bf08      	it	eq
 800050a:	4770      	bxeq	lr
 800050c:	b530      	push	{r4, r5, lr}
 800050e:	f011 4500 	ands.w	r5, r1, #2147483648	; 0x80000000
 8000512:	d502      	bpl.n	800051a <__aeabi_l2d+0x16>
 8000514:	4240      	negs	r0, r0
 8000516:	eb61 0141 	sbc.w	r1, r1, r1, lsl #1
 800051a:	f44f 6480 	mov.w	r4, #1024	; 0x400
 800051e:	f104 0432 	add.w	r4, r4, #50	; 0x32
 8000522:	ea5f 5c91 	movs.w	ip, r1, lsr #22
 8000526:	f43f aed8 	beq.w	80002da <__adddf3+0xe6>
 800052a:	f04f 0203 	mov.w	r2, #3
 800052e:	ea5f 0cdc 	movs.w	ip, ip, lsr #3
 8000532:	bf18      	it	ne
 8000534:	3203      	addne	r2, #3
 8000536:	ea5f 0cdc 	movs.w	ip, ip, lsr #3
 800053a:	bf18      	it	ne
 800053c:	3203      	addne	r2, #3
 800053e:	eb02 02dc 	add.w	r2, r2, ip, lsr #3
 8000542:	f1c2 0320 	rsb	r3, r2, #32
 8000546:	fa00 fc03 	lsl.w	ip, r0, r3
 800054a:	fa20 f002 	lsr.w	r0, r0, r2
 800054e:	fa01 fe03 	lsl.w	lr, r1, r3
 8000552:	ea40 000e 	orr.w	r0, r0, lr
 8000556:	fa21 f102 	lsr.w	r1, r1, r2
 800055a:	4414      	add	r4, r2
 800055c:	e6bd      	b.n	80002da <__adddf3+0xe6>
 800055e:	bf00      	nop

08000560 <__aeabi_dmul>:
 8000560:	b570      	push	{r4, r5, r6, lr}
 8000562:	f04f 0cff 	mov.w	ip, #255	; 0xff
 8000566:	f44c 6ce0 	orr.w	ip, ip, #1792	; 0x700
 800056a:	ea1c 5411 	ands.w	r4, ip, r1, lsr #20
 800056e:	bf1d      	ittte	ne
 8000570:	ea1c 5513 	andsne.w	r5, ip, r3, lsr #20
 8000574:	ea94 0f0c 	teqne	r4, ip
 8000578:	ea95 0f0c 	teqne	r5, ip
 800057c:	f000 f8de 	bleq	800073c <__aeabi_dmul+0x1dc>
 8000580:	442c      	add	r4, r5
 8000582:	ea81 0603 	eor.w	r6, r1, r3
 8000586:	ea21 514c 	bic.w	r1, r1, ip, lsl #21
 800058a:	ea23 534c 	bic.w	r3, r3, ip, lsl #21
 800058e:	ea50 3501 	orrs.w	r5, r0, r1, lsl #12
 8000592:	bf18      	it	ne
 8000594:	ea52 3503 	orrsne.w	r5, r2, r3, lsl #12
 8000598:	f441 1180 	orr.w	r1, r1, #1048576	; 0x100000
 800059c:	f443 1380 	orr.w	r3, r3, #1048576	; 0x100000
 80005a0:	d038      	beq.n	8000614 <__aeabi_dmul+0xb4>
 80005a2:	fba0 ce02 	umull	ip, lr, r0, r2
 80005a6:	f04f 0500 	mov.w	r5, #0
 80005aa:	fbe1 e502 	umlal	lr, r5, r1, r2
 80005ae:	f006 4200 	and.w	r2, r6, #2147483648	; 0x80000000
 80005b2:	fbe0 e503 	umlal	lr, r5, r0, r3
 80005b6:	f04f 0600 	mov.w	r6, #0
 80005ba:	fbe1 5603 	umlal	r5, r6, r1, r3
 80005be:	f09c 0f00 	teq	ip, #0
 80005c2:	bf18      	it	ne
 80005c4:	f04e 0e01 	orrne.w	lr, lr, #1
 80005c8:	f1a4 04ff 	sub.w	r4, r4, #255	; 0xff
 80005cc:	f5b6 7f00 	cmp.w	r6, #512	; 0x200
 80005d0:	f564 7440 	sbc.w	r4, r4, #768	; 0x300
 80005d4:	d204      	bcs.n	80005e0 <__aeabi_dmul+0x80>
 80005d6:	ea5f 0e4e 	movs.w	lr, lr, lsl #1
 80005da:	416d      	adcs	r5, r5
 80005dc:	eb46 0606 	adc.w	r6, r6, r6
 80005e0:	ea42 21c6 	orr.w	r1, r2, r6, lsl #11
 80005e4:	ea41 5155 	orr.w	r1, r1, r5, lsr #21
 80005e8:	ea4f 20c5 	mov.w	r0, r5, lsl #11
 80005ec:	ea40 505e 	orr.w	r0, r0, lr, lsr #21
 80005f0:	ea4f 2ece 	mov.w	lr, lr, lsl #11
 80005f4:	f1b4 0cfd 	subs.w	ip, r4, #253	; 0xfd
 80005f8:	bf88      	it	hi
 80005fa:	f5bc 6fe0 	cmphi.w	ip, #1792	; 0x700
 80005fe:	d81e      	bhi.n	800063e <__aeabi_dmul+0xde>
 8000600:	f1be 4f00 	cmp.w	lr, #2147483648	; 0x80000000
 8000604:	bf08      	it	eq
 8000606:	ea5f 0e50 	movseq.w	lr, r0, lsr #1
 800060a:	f150 0000 	adcs.w	r0, r0, #0
 800060e:	eb41 5104 	adc.w	r1, r1, r4, lsl #20
 8000612:	bd70      	pop	{r4, r5, r6, pc}
 8000614:	f006 4600 	and.w	r6, r6, #2147483648	; 0x80000000
 8000618:	ea46 0101 	orr.w	r1, r6, r1
 800061c:	ea40 0002 	orr.w	r0, r0, r2
 8000620:	ea81 0103 	eor.w	r1, r1, r3
 8000624:	ebb4 045c 	subs.w	r4, r4, ip, lsr #1
 8000628:	bfc2      	ittt	gt
 800062a:	ebd4 050c 	rsbsgt	r5, r4, ip
 800062e:	ea41 5104 	orrgt.w	r1, r1, r4, lsl #20
 8000632:	bd70      	popgt	{r4, r5, r6, pc}
 8000634:	f441 1180 	orr.w	r1, r1, #1048576	; 0x100000
 8000638:	f04f 0e00 	mov.w	lr, #0
 800063c:	3c01      	subs	r4, #1
 800063e:	f300 80ab 	bgt.w	8000798 <__aeabi_dmul+0x238>
 8000642:	f114 0f36 	cmn.w	r4, #54	; 0x36
 8000646:	bfde      	ittt	le
 8000648:	2000      	movle	r0, #0
 800064a:	f001 4100 	andle.w	r1, r1, #2147483648	; 0x80000000
 800064e:	bd70      	pople	{r4, r5, r6, pc}
 8000650:	f1c4 0400 	rsb	r4, r4, #0
 8000654:	3c20      	subs	r4, #32
 8000656:	da35      	bge.n	80006c4 <__aeabi_dmul+0x164>
 8000658:	340c      	adds	r4, #12
 800065a:	dc1b      	bgt.n	8000694 <__aeabi_dmul+0x134>
 800065c:	f104 0414 	add.w	r4, r4, #20
 8000660:	f1c4 0520 	rsb	r5, r4, #32
 8000664:	fa00 f305 	lsl.w	r3, r0, r5
 8000668:	fa20 f004 	lsr.w	r0, r0, r4
 800066c:	fa01 f205 	lsl.w	r2, r1, r5
 8000670:	ea40 0002 	orr.w	r0, r0, r2
 8000674:	f001 4200 	and.w	r2, r1, #2147483648	; 0x80000000
 8000678:	f021 4100 	bic.w	r1, r1, #2147483648	; 0x80000000
 800067c:	eb10 70d3 	adds.w	r0, r0, r3, lsr #31
 8000680:	fa21 f604 	lsr.w	r6, r1, r4
 8000684:	eb42 0106 	adc.w	r1, r2, r6
 8000688:	ea5e 0e43 	orrs.w	lr, lr, r3, lsl #1
 800068c:	bf08      	it	eq
 800068e:	ea20 70d3 	biceq.w	r0, r0, r3, lsr #31
 8000692:	bd70      	pop	{r4, r5, r6, pc}
 8000694:	f1c4 040c 	rsb	r4, r4, #12
 8000698:	f1c4 0520 	rsb	r5, r4, #32
 800069c:	fa00 f304 	lsl.w	r3, r0, r4
 80006a0:	fa20 f005 	lsr.w	r0, r0, r5
 80006a4:	fa01 f204 	lsl.w	r2, r1, r4
 80006a8:	ea40 0002 	orr.w	r0, r0, r2
 80006ac:	f001 4100 	and.w	r1, r1, #2147483648	; 0x80000000
 80006b0:	eb10 70d3 	adds.w	r0, r0, r3, lsr #31
 80006b4:	f141 0100 	adc.w	r1, r1, #0
 80006b8:	ea5e 0e43 	orrs.w	lr, lr, r3, lsl #1
 80006bc:	bf08      	it	eq
 80006be:	ea20 70d3 	biceq.w	r0, r0, r3, lsr #31
 80006c2:	bd70      	pop	{r4, r5, r6, pc}
 80006c4:	f1c4 0520 	rsb	r5, r4, #32
 80006c8:	fa00 f205 	lsl.w	r2, r0, r5
 80006cc:	ea4e 0e02 	orr.w	lr, lr, r2
 80006d0:	fa20 f304 	lsr.w	r3, r0, r4
 80006d4:	fa01 f205 	lsl.w	r2, r1, r5
 80006d8:	ea43 0302 	orr.w	r3, r3, r2
 80006dc:	fa21 f004 	lsr.w	r0, r1, r4
 80006e0:	f001 4100 	and.w	r1, r1, #2147483648	; 0x80000000
 80006e4:	fa21 f204 	lsr.w	r2, r1, r4
 80006e8:	ea20 0002 	bic.w	r0, r0, r2
 80006ec:	eb00 70d3 	add.w	r0, r0, r3, lsr #31
 80006f0:	ea5e 0e43 	orrs.w	lr, lr, r3, lsl #1
 80006f4:	bf08      	it	eq
 80006f6:	ea20 70d3 	biceq.w	r0, r0, r3, lsr #31
 80006fa:	bd70      	pop	{r4, r5, r6, pc}
 80006fc:	f094 0f00 	teq	r4, #0
 8000700:	d10f      	bne.n	8000722 <__aeabi_dmul+0x1c2>
 8000702:	f001 4600 	and.w	r6, r1, #2147483648	; 0x80000000
 8000706:	0040      	lsls	r0, r0, #1
 8000708:	eb41 0101 	adc.w	r1, r1, r1
 800070c:	f411 1f80 	tst.w	r1, #1048576	; 0x100000
 8000710:	bf08      	it	eq
 8000712:	3c01      	subeq	r4, #1
 8000714:	d0f7      	beq.n	8000706 <__aeabi_dmul+0x1a6>
 8000716:	ea41 0106 	orr.w	r1, r1, r6
 800071a:	f095 0f00 	teq	r5, #0
 800071e:	bf18      	it	ne
 8000720:	4770      	bxne	lr
 8000722:	f003 4600 	and.w	r6, r3, #2147483648	; 0x80000000
 8000726:	0052      	lsls	r2, r2, #1
 8000728:	eb43 0303 	adc.w	r3, r3, r3
 800072c:	f413 1f80 	tst.w	r3, #1048576	; 0x100000
 8000730:	bf08      	it	eq
 8000732:	3d01      	subeq	r5, #1
 8000734:	d0f7      	beq.n	8000726 <__aeabi_dmul+0x1c6>
 8000736:	ea43 0306 	orr.w	r3, r3, r6
 800073a:	4770      	bx	lr
 800073c:	ea94 0f0c 	teq	r4, ip
 8000740:	ea0c 5513 	and.w	r5, ip, r3, lsr #20
 8000744:	bf18      	it	ne
 8000746:	ea95 0f0c 	teqne	r5, ip
 800074a:	d00c      	beq.n	8000766 <__aeabi_dmul+0x206>
 800074c:	ea50 0641 	orrs.w	r6, r0, r1, lsl #1
 8000750:	bf18      	it	ne
 8000752:	ea52 0643 	orrsne.w	r6, r2, r3, lsl #1
 8000756:	d1d1      	bne.n	80006fc <__aeabi_dmul+0x19c>
 8000758:	ea81 0103 	eor.w	r1, r1, r3
 800075c:	f001 4100 	and.w	r1, r1, #2147483648	; 0x80000000
 8000760:	f04f 0000 	mov.w	r0, #0
 8000764:	bd70      	pop	{r4, r5, r6, pc}
 8000766:	ea50 0641 	orrs.w	r6, r0, r1, lsl #1
 800076a:	bf06      	itte	eq
 800076c:	4610      	moveq	r0, r2
 800076e:	4619      	moveq	r1, r3
 8000770:	ea52 0643 	orrsne.w	r6, r2, r3, lsl #1
 8000774:	d019      	beq.n	80007aa <__aeabi_dmul+0x24a>
 8000776:	ea94 0f0c 	teq	r4, ip
 800077a:	d102      	bne.n	8000782 <__aeabi_dmul+0x222>
 800077c:	ea50 3601 	orrs.w	r6, r0, r1, lsl #12
 8000780:	d113      	bne.n	80007aa <__aeabi_dmul+0x24a>
 8000782:	ea95 0f0c 	teq	r5, ip
 8000786:	d105      	bne.n	8000794 <__aeabi_dmul+0x234>
 8000788:	ea52 3603 	orrs.w	r6, r2, r3, lsl #12
 800078c:	bf1c      	itt	ne
 800078e:	4610      	movne	r0, r2
 8000790:	4619      	movne	r1, r3
 8000792:	d10a      	bne.n	80007aa <__aeabi_dmul+0x24a>
 8000794:	ea81 0103 	eor.w	r1, r1, r3
 8000798:	f001 4100 	and.w	r1, r1, #2147483648	; 0x80000000
 800079c:	f041 41fe 	orr.w	r1, r1, #2130706432	; 0x7f000000
 80007a0:	f441 0170 	orr.w	r1, r1, #15728640	; 0xf00000
 80007a4:	f04f 0000 	mov.w	r0, #0
 80007a8:	bd70      	pop	{r4, r5, r6, pc}
 80007aa:	f041 41fe 	orr.w	r1, r1, #2130706432	; 0x7f000000
 80007ae:	f441 0178 	orr.w	r1, r1, #16252928	; 0xf80000
 80007b2:	bd70      	pop	{r4, r5, r6, pc}

080007b4 <__aeabi_ddiv>:
 80007b4:	b570      	push	{r4, r5, r6, lr}
 80007b6:	f04f 0cff 	mov.w	ip, #255	; 0xff
 80007ba:	f44c 6ce0 	orr.w	ip, ip, #1792	; 0x700
 80007be:	ea1c 5411 	ands.w	r4, ip, r1, lsr #20
 80007c2:	bf1d      	ittte	ne
 80007c4:	ea1c 5513 	andsne.w	r5, ip, r3, lsr #20
 80007c8:	ea94 0f0c 	teqne	r4, ip
 80007cc:	ea95 0f0c 	teqne	r5, ip
 80007d0:	f000 f8a7 	bleq	8000922 <__aeabi_ddiv+0x16e>
 80007d4:	eba4 0405 	sub.w	r4, r4, r5
 80007d8:	ea81 0e03 	eor.w	lr, r1, r3
 80007dc:	ea52 3503 	orrs.w	r5, r2, r3, lsl #12
 80007e0:	ea4f 3101 	mov.w	r1, r1, lsl #12
 80007e4:	f000 8088 	beq.w	80008f8 <__aeabi_ddiv+0x144>
 80007e8:	ea4f 3303 	mov.w	r3, r3, lsl #12
 80007ec:	f04f 5580 	mov.w	r5, #268435456	; 0x10000000
 80007f0:	ea45 1313 	orr.w	r3, r5, r3, lsr #4
 80007f4:	ea43 6312 	orr.w	r3, r3, r2, lsr #24
 80007f8:	ea4f 2202 	mov.w	r2, r2, lsl #8
 80007fc:	ea45 1511 	orr.w	r5, r5, r1, lsr #4
 8000800:	ea45 6510 	orr.w	r5, r5, r0, lsr #24
 8000804:	ea4f 2600 	mov.w	r6, r0, lsl #8
 8000808:	f00e 4100 	and.w	r1, lr, #2147483648	; 0x80000000
 800080c:	429d      	cmp	r5, r3
 800080e:	bf08      	it	eq
 8000810:	4296      	cmpeq	r6, r2
 8000812:	f144 04fd 	adc.w	r4, r4, #253	; 0xfd
 8000816:	f504 7440 	add.w	r4, r4, #768	; 0x300
 800081a:	d202      	bcs.n	8000822 <__aeabi_ddiv+0x6e>
 800081c:	085b      	lsrs	r3, r3, #1
 800081e:	ea4f 0232 	mov.w	r2, r2, rrx
 8000822:	1ab6      	subs	r6, r6, r2
 8000824:	eb65 0503 	sbc.w	r5, r5, r3
 8000828:	085b      	lsrs	r3, r3, #1
 800082a:	ea4f 0232 	mov.w	r2, r2, rrx
 800082e:	f44f 1080 	mov.w	r0, #1048576	; 0x100000
 8000832:	f44f 2c00 	mov.w	ip, #524288	; 0x80000
 8000836:	ebb6 0e02 	subs.w	lr, r6, r2
 800083a:	eb75 0e03 	sbcs.w	lr, r5, r3
 800083e:	bf22      	ittt	cs
 8000840:	1ab6      	subcs	r6, r6, r2
 8000842:	4675      	movcs	r5, lr
 8000844:	ea40 000c 	orrcs.w	r0, r0, ip
 8000848:	085b      	lsrs	r3, r3, #1
 800084a:	ea4f 0232 	mov.w	r2, r2, rrx
 800084e:	ebb6 0e02 	subs.w	lr, r6, r2
 8000852:	eb75 0e03 	sbcs.w	lr, r5, r3
 8000856:	bf22      	ittt	cs
 8000858:	1ab6      	subcs	r6, r6, r2
 800085a:	4675      	movcs	r5, lr
 800085c:	ea40 005c 	orrcs.w	r0, r0, ip, lsr #1
 8000860:	085b      	lsrs	r3, r3, #1
 8000862:	ea4f 0232 	mov.w	r2, r2, rrx
 8000866:	ebb6 0e02 	subs.w	lr, r6, r2
 800086a:	eb75 0e03 	sbcs.w	lr, r5, r3
 800086e:	bf22      	ittt	cs
 8000870:	1ab6      	subcs	r6, r6, r2
 8000872:	4675      	movcs	r5, lr
 8000874:	ea40 009c 	orrcs.w	r0, r0, ip, lsr #2
 8000878:	085b      	lsrs	r3, r3, #1
 800087a:	ea4f 0232 	mov.w	r2, r2, rrx
 800087e:	ebb6 0e02 	subs.w	lr, r6, r2
 8000882:	eb75 0e03 	sbcs.w	lr, r5, r3
 8000886:	bf22      	ittt	cs
 8000888:	1ab6      	subcs	r6, r6, r2
 800088a:	4675      	movcs	r5, lr
 800088c:	ea40 00dc 	orrcs.w	r0, r0, ip, lsr #3
 8000890:	ea55 0e06 	orrs.w	lr, r5, r6
 8000894:	d018      	beq.n	80008c8 <__aeabi_ddiv+0x114>
 8000896:	ea4f 1505 	mov.w	r5, r5, lsl #4
 800089a:	ea45 7516 	orr.w	r5, r5, r6, lsr #28
 800089e:	ea4f 1606 	mov.w	r6, r6, lsl #4
 80008a2:	ea4f 03c3 	mov.w	r3, r3, lsl #3
 80008a6:	ea43 7352 	orr.w	r3, r3, r2, lsr #29
 80008aa:	ea4f 02c2 	mov.w	r2, r2, lsl #3
 80008ae:	ea5f 1c1c 	movs.w	ip, ip, lsr #4
 80008b2:	d1c0      	bne.n	8000836 <__aeabi_ddiv+0x82>
 80008b4:	f411 1f80 	tst.w	r1, #1048576	; 0x100000
 80008b8:	d10b      	bne.n	80008d2 <__aeabi_ddiv+0x11e>
 80008ba:	ea41 0100 	orr.w	r1, r1, r0
 80008be:	f04f 0000 	mov.w	r0, #0
 80008c2:	f04f 4c00 	mov.w	ip, #2147483648	; 0x80000000
 80008c6:	e7b6      	b.n	8000836 <__aeabi_ddiv+0x82>
 80008c8:	f411 1f80 	tst.w	r1, #1048576	; 0x100000
 80008cc:	bf04      	itt	eq
 80008ce:	4301      	orreq	r1, r0
 80008d0:	2000      	moveq	r0, #0
 80008d2:	f1b4 0cfd 	subs.w	ip, r4, #253	; 0xfd
 80008d6:	bf88      	it	hi
 80008d8:	f5bc 6fe0 	cmphi.w	ip, #1792	; 0x700
 80008dc:	f63f aeaf 	bhi.w	800063e <__aeabi_dmul+0xde>
 80008e0:	ebb5 0c03 	subs.w	ip, r5, r3
 80008e4:	bf04      	itt	eq
 80008e6:	ebb6 0c02 	subseq.w	ip, r6, r2
 80008ea:	ea5f 0c50 	movseq.w	ip, r0, lsr #1
 80008ee:	f150 0000 	adcs.w	r0, r0, #0
 80008f2:	eb41 5104 	adc.w	r1, r1, r4, lsl #20
 80008f6:	bd70      	pop	{r4, r5, r6, pc}
 80008f8:	f00e 4e00 	and.w	lr, lr, #2147483648	; 0x80000000
 80008fc:	ea4e 3111 	orr.w	r1, lr, r1, lsr #12
 8000900:	eb14 045c 	adds.w	r4, r4, ip, lsr #1
 8000904:	bfc2      	ittt	gt
 8000906:	ebd4 050c 	rsbsgt	r5, r4, ip
 800090a:	ea41 5104 	orrgt.w	r1, r1, r4, lsl #20
 800090e:	bd70      	popgt	{r4, r5, r6, pc}
 8000910:	f441 1180 	orr.w	r1, r1, #1048576	; 0x100000
 8000914:	f04f 0e00 	mov.w	lr, #0
 8000918:	3c01      	subs	r4, #1
 800091a:	e690      	b.n	800063e <__aeabi_dmul+0xde>
 800091c:	ea45 0e06 	orr.w	lr, r5, r6
 8000920:	e68d      	b.n	800063e <__aeabi_dmul+0xde>
 8000922:	ea0c 5513 	and.w	r5, ip, r3, lsr #20
 8000926:	ea94 0f0c 	teq	r4, ip
 800092a:	bf08      	it	eq
 800092c:	ea95 0f0c 	teqeq	r5, ip
 8000930:	f43f af3b 	beq.w	80007aa <__aeabi_dmul+0x24a>
 8000934:	ea94 0f0c 	teq	r4, ip
 8000938:	d10a      	bne.n	8000950 <__aeabi_ddiv+0x19c>
 800093a:	ea50 3401 	orrs.w	r4, r0, r1, lsl #12
 800093e:	f47f af34 	bne.w	80007aa <__aeabi_dmul+0x24a>
 8000942:	ea95 0f0c 	teq	r5, ip
 8000946:	f47f af25 	bne.w	8000794 <__aeabi_dmul+0x234>
 800094a:	4610      	mov	r0, r2
 800094c:	4619      	mov	r1, r3
 800094e:	e72c      	b.n	80007aa <__aeabi_dmul+0x24a>
 8000950:	ea95 0f0c 	teq	r5, ip
 8000954:	d106      	bne.n	8000964 <__aeabi_ddiv+0x1b0>
 8000956:	ea52 3503 	orrs.w	r5, r2, r3, lsl #12
 800095a:	f43f aefd 	beq.w	8000758 <__aeabi_dmul+0x1f8>
 800095e:	4610      	mov	r0, r2
 8000960:	4619      	mov	r1, r3
 8000962:	e722      	b.n	80007aa <__aeabi_dmul+0x24a>
 8000964:	ea50 0641 	orrs.w	r6, r0, r1, lsl #1
 8000968:	bf18      	it	ne
 800096a:	ea52 0643 	orrsne.w	r6, r2, r3, lsl #1
 800096e:	f47f aec5 	bne.w	80006fc <__aeabi_dmul+0x19c>
 8000972:	ea50 0441 	orrs.w	r4, r0, r1, lsl #1
 8000976:	f47f af0d 	bne.w	8000794 <__aeabi_dmul+0x234>
 800097a:	ea52 0543 	orrs.w	r5, r2, r3, lsl #1
 800097e:	f47f aeeb 	bne.w	8000758 <__aeabi_dmul+0x1f8>
 8000982:	e712      	b.n	80007aa <__aeabi_dmul+0x24a>

08000984 <__aeabi_d2uiz>:
 8000984:	004a      	lsls	r2, r1, #1
 8000986:	d211      	bcs.n	80009ac <__aeabi_d2uiz+0x28>
 8000988:	f512 1200 	adds.w	r2, r2, #2097152	; 0x200000
 800098c:	d211      	bcs.n	80009b2 <__aeabi_d2uiz+0x2e>
 800098e:	d50d      	bpl.n	80009ac <__aeabi_d2uiz+0x28>
 8000990:	f46f 7378 	mvn.w	r3, #992	; 0x3e0
 8000994:	ebb3 5262 	subs.w	r2, r3, r2, asr #21
 8000998:	d40e      	bmi.n	80009b8 <__aeabi_d2uiz+0x34>
 800099a:	ea4f 23c1 	mov.w	r3, r1, lsl #11
 800099e:	f043 4300 	orr.w	r3, r3, #2147483648	; 0x80000000
 80009a2:	ea43 5350 	orr.w	r3, r3, r0, lsr #21
 80009a6:	fa23 f002 	lsr.w	r0, r3, r2
 80009aa:	4770      	bx	lr
 80009ac:	f04f 0000 	mov.w	r0, #0
 80009b0:	4770      	bx	lr
 80009b2:	ea50 3001 	orrs.w	r0, r0, r1, lsl #12
 80009b6:	d102      	bne.n	80009be <__aeabi_d2uiz+0x3a>
 80009b8:	f04f 30ff 	mov.w	r0, #4294967295	; 0xffffffff
 80009bc:	4770      	bx	lr
 80009be:	f04f 0000 	mov.w	r0, #0
 80009c2:	4770      	bx	lr

080009c4 <__aeabi_uldivmod>:
 80009c4:	b953      	cbnz	r3, 80009dc <__aeabi_uldivmod+0x18>
 80009c6:	b94a      	cbnz	r2, 80009dc <__aeabi_uldivmod+0x18>
 80009c8:	2900      	cmp	r1, #0
 80009ca:	bf08      	it	eq
 80009cc:	2800      	cmpeq	r0, #0
 80009ce:	bf1c      	itt	ne
 80009d0:	f04f 31ff 	movne.w	r1, #4294967295	; 0xffffffff
 80009d4:	f04f 30ff 	movne.w	r0, #4294967295	; 0xffffffff
 80009d8:	f000 b970 	b.w	8000cbc <__aeabi_idiv0>
 80009dc:	f1ad 0c08 	sub.w	ip, sp, #8
 80009e0:	e96d ce04 	strd	ip, lr, [sp, #-16]!
 80009e4:	f000 f806 	bl	80009f4 <__udivmoddi4>
 80009e8:	f8dd e004 	ldr.w	lr, [sp, #4]
 80009ec:	e9dd 2302 	ldrd	r2, r3, [sp, #8]
 80009f0:	b004      	add	sp, #16
 80009f2:	4770      	bx	lr

080009f4 <__udivmoddi4>:
 80009f4:	e92d 47f0 	stmdb	sp!, {r4, r5, r6, r7, r8, r9, sl, lr}
 80009f8:	9e08      	ldr	r6, [sp, #32]
 80009fa:	460d      	mov	r5, r1
 80009fc:	4604      	mov	r4, r0
 80009fe:	460f      	mov	r7, r1
 8000a00:	2b00      	cmp	r3, #0
 8000a02:	d14a      	bne.n	8000a9a <__udivmoddi4+0xa6>
 8000a04:	428a      	cmp	r2, r1
 8000a06:	4694      	mov	ip, r2
 8000a08:	d965      	bls.n	8000ad6 <__udivmoddi4+0xe2>
 8000a0a:	fab2 f382 	clz	r3, r2
 8000a0e:	b143      	cbz	r3, 8000a22 <__udivmoddi4+0x2e>
 8000a10:	fa02 fc03 	lsl.w	ip, r2, r3
 8000a14:	f1c3 0220 	rsb	r2, r3, #32
 8000a18:	409f      	lsls	r7, r3
 8000a1a:	fa20 f202 	lsr.w	r2, r0, r2
 8000a1e:	4317      	orrs	r7, r2
 8000a20:	409c      	lsls	r4, r3
 8000a22:	ea4f 4e1c 	mov.w	lr, ip, lsr #16
 8000a26:	fa1f f58c 	uxth.w	r5, ip
 8000a2a:	fbb7 f1fe 	udiv	r1, r7, lr
 8000a2e:	0c22      	lsrs	r2, r4, #16
 8000a30:	fb0e 7711 	mls	r7, lr, r1, r7
 8000a34:	ea42 4207 	orr.w	r2, r2, r7, lsl #16
 8000a38:	fb01 f005 	mul.w	r0, r1, r5
 8000a3c:	4290      	cmp	r0, r2
 8000a3e:	d90a      	bls.n	8000a56 <__udivmoddi4+0x62>
 8000a40:	eb1c 0202 	adds.w	r2, ip, r2
 8000a44:	f101 37ff 	add.w	r7, r1, #4294967295	; 0xffffffff
 8000a48:	f080 811c 	bcs.w	8000c84 <__udivmoddi4+0x290>
 8000a4c:	4290      	cmp	r0, r2
 8000a4e:	f240 8119 	bls.w	8000c84 <__udivmoddi4+0x290>
 8000a52:	3902      	subs	r1, #2
 8000a54:	4462      	add	r2, ip
 8000a56:	1a12      	subs	r2, r2, r0
 8000a58:	b2a4      	uxth	r4, r4
 8000a5a:	fbb2 f0fe 	udiv	r0, r2, lr
 8000a5e:	fb0e 2210 	mls	r2, lr, r0, r2
 8000a62:	ea44 4402 	orr.w	r4, r4, r2, lsl #16
 8000a66:	fb00 f505 	mul.w	r5, r0, r5
 8000a6a:	42a5      	cmp	r5, r4
 8000a6c:	d90a      	bls.n	8000a84 <__udivmoddi4+0x90>
 8000a6e:	eb1c 0404 	adds.w	r4, ip, r4
 8000a72:	f100 32ff 	add.w	r2, r0, #4294967295	; 0xffffffff
 8000a76:	f080 8107 	bcs.w	8000c88 <__udivmoddi4+0x294>
 8000a7a:	42a5      	cmp	r5, r4
 8000a7c:	f240 8104 	bls.w	8000c88 <__udivmoddi4+0x294>
 8000a80:	4464      	add	r4, ip
 8000a82:	3802      	subs	r0, #2
 8000a84:	ea40 4001 	orr.w	r0, r0, r1, lsl #16
 8000a88:	1b64      	subs	r4, r4, r5
 8000a8a:	2100      	movs	r1, #0
 8000a8c:	b11e      	cbz	r6, 8000a96 <__udivmoddi4+0xa2>
 8000a8e:	40dc      	lsrs	r4, r3
 8000a90:	2300      	movs	r3, #0
 8000a92:	e9c6 4300 	strd	r4, r3, [r6]
 8000a96:	e8bd 87f0 	ldmia.w	sp!, {r4, r5, r6, r7, r8, r9, sl, pc}
 8000a9a:	428b      	cmp	r3, r1
 8000a9c:	d908      	bls.n	8000ab0 <__udivmoddi4+0xbc>
 8000a9e:	2e00      	cmp	r6, #0
 8000aa0:	f000 80ed 	beq.w	8000c7e <__udivmoddi4+0x28a>
 8000aa4:	2100      	movs	r1, #0
 8000aa6:	e9c6 0500 	strd	r0, r5, [r6]
 8000aaa:	4608      	mov	r0, r1
 8000aac:	e8bd 87f0 	ldmia.w	sp!, {r4, r5, r6, r7, r8, r9, sl, pc}
 8000ab0:	fab3 f183 	clz	r1, r3
 8000ab4:	2900      	cmp	r1, #0
 8000ab6:	d149      	bne.n	8000b4c <__udivmoddi4+0x158>
 8000ab8:	42ab      	cmp	r3, r5
 8000aba:	d302      	bcc.n	8000ac2 <__udivmoddi4+0xce>
 8000abc:	4282      	cmp	r2, r0
 8000abe:	f200 80f8 	bhi.w	8000cb2 <__udivmoddi4+0x2be>
 8000ac2:	1a84      	subs	r4, r0, r2
 8000ac4:	eb65 0203 	sbc.w	r2, r5, r3
 8000ac8:	2001      	movs	r0, #1
 8000aca:	4617      	mov	r7, r2
 8000acc:	2e00      	cmp	r6, #0
 8000ace:	d0e2      	beq.n	8000a96 <__udivmoddi4+0xa2>
 8000ad0:	e9c6 4700 	strd	r4, r7, [r6]
 8000ad4:	e7df      	b.n	8000a96 <__udivmoddi4+0xa2>
 8000ad6:	b902      	cbnz	r2, 8000ada <__udivmoddi4+0xe6>
 8000ad8:	deff      	udf	#255	; 0xff
 8000ada:	fab2 f382 	clz	r3, r2
 8000ade:	2b00      	cmp	r3, #0
 8000ae0:	f040 8090 	bne.w	8000c04 <__udivmoddi4+0x210>
 8000ae4:	1a8a      	subs	r2, r1, r2
 8000ae6:	ea4f 471c 	mov.w	r7, ip, lsr #16
 8000aea:	fa1f fe8c 	uxth.w	lr, ip
 8000aee:	2101      	movs	r1, #1
 8000af0:	fbb2 f5f7 	udiv	r5, r2, r7
 8000af4:	fb07 2015 	mls	r0, r7, r5, r2
 8000af8:	0c22      	lsrs	r2, r4, #16
 8000afa:	ea42 4200 	orr.w	r2, r2, r0, lsl #16
 8000afe:	fb0e f005 	mul.w	r0, lr, r5
 8000b02:	4290      	cmp	r0, r2
 8000b04:	d908      	bls.n	8000b18 <__udivmoddi4+0x124>
 8000b06:	eb1c 0202 	adds.w	r2, ip, r2
 8000b0a:	f105 38ff 	add.w	r8, r5, #4294967295	; 0xffffffff
 8000b0e:	d202      	bcs.n	8000b16 <__udivmoddi4+0x122>
 8000b10:	4290      	cmp	r0, r2
 8000b12:	f200 80cb 	bhi.w	8000cac <__udivmoddi4+0x2b8>
 8000b16:	4645      	mov	r5, r8
 8000b18:	1a12      	subs	r2, r2, r0
 8000b1a:	b2a4      	uxth	r4, r4
 8000b1c:	fbb2 f0f7 	udiv	r0, r2, r7
 8000b20:	fb07 2210 	mls	r2, r7, r0, r2
 8000b24:	ea44 4402 	orr.w	r4, r4, r2, lsl #16
 8000b28:	fb0e fe00 	mul.w	lr, lr, r0
 8000b2c:	45a6      	cmp	lr, r4
 8000b2e:	d908      	bls.n	8000b42 <__udivmoddi4+0x14e>
 8000b30:	eb1c 0404 	adds.w	r4, ip, r4
 8000b34:	f100 32ff 	add.w	r2, r0, #4294967295	; 0xffffffff
 8000b38:	d202      	bcs.n	8000b40 <__udivmoddi4+0x14c>
 8000b3a:	45a6      	cmp	lr, r4
 8000b3c:	f200 80bb 	bhi.w	8000cb6 <__udivmoddi4+0x2c2>
 8000b40:	4610      	mov	r0, r2
 8000b42:	eba4 040e 	sub.w	r4, r4, lr
 8000b46:	ea40 4005 	orr.w	r0, r0, r5, lsl #16
 8000b4a:	e79f      	b.n	8000a8c <__udivmoddi4+0x98>
 8000b4c:	f1c1 0720 	rsb	r7, r1, #32
 8000b50:	408b      	lsls	r3, r1
 8000b52:	fa22 fc07 	lsr.w	ip, r2, r7
 8000b56:	ea4c 0c03 	orr.w	ip, ip, r3
 8000b5a:	fa05 f401 	lsl.w	r4, r5, r1
 8000b5e:	fa20 f307 	lsr.w	r3, r0, r7
 8000b62:	40fd      	lsrs	r5, r7
 8000b64:	ea4f 491c 	mov.w	r9, ip, lsr #16
 8000b68:	4323      	orrs	r3, r4
 8000b6a:	fbb5 f8f9 	udiv	r8, r5, r9
 8000b6e:	fa1f fe8c 	uxth.w	lr, ip
 8000b72:	fb09 5518 	mls	r5, r9, r8, r5
 8000b76:	0c1c      	lsrs	r4, r3, #16
 8000b78:	ea44 4405 	orr.w	r4, r4, r5, lsl #16
 8000b7c:	fb08 f50e 	mul.w	r5, r8, lr
 8000b80:	42a5      	cmp	r5, r4
 8000b82:	fa02 f201 	lsl.w	r2, r2, r1
 8000b86:	fa00 f001 	lsl.w	r0, r0, r1
 8000b8a:	d90b      	bls.n	8000ba4 <__udivmoddi4+0x1b0>
 8000b8c:	eb1c 0404 	adds.w	r4, ip, r4
 8000b90:	f108 3aff 	add.w	sl, r8, #4294967295	; 0xffffffff
 8000b94:	f080 8088 	bcs.w	8000ca8 <__udivmoddi4+0x2b4>
 8000b98:	42a5      	cmp	r5, r4
 8000b9a:	f240 8085 	bls.w	8000ca8 <__udivmoddi4+0x2b4>
 8000b9e:	f1a8 0802 	sub.w	r8, r8, #2
 8000ba2:	4464      	add	r4, ip
 8000ba4:	1b64      	subs	r4, r4, r5
 8000ba6:	b29d      	uxth	r5, r3
 8000ba8:	fbb4 f3f9 	udiv	r3, r4, r9
 8000bac:	fb09 4413 	mls	r4, r9, r3, r4
 8000bb0:	ea45 4404 	orr.w	r4, r5, r4, lsl #16
 8000bb4:	fb03 fe0e 	mul.w	lr, r3, lr
 8000bb8:	45a6      	cmp	lr, r4
 8000bba:	d908      	bls.n	8000bce <__udivmoddi4+0x1da>
 8000bbc:	eb1c 0404 	adds.w	r4, ip, r4
 8000bc0:	f103 35ff 	add.w	r5, r3, #4294967295	; 0xffffffff
 8000bc4:	d26c      	bcs.n	8000ca0 <__udivmoddi4+0x2ac>
 8000bc6:	45a6      	cmp	lr, r4
 8000bc8:	d96a      	bls.n	8000ca0 <__udivmoddi4+0x2ac>
 8000bca:	3b02      	subs	r3, #2
 8000bcc:	4464      	add	r4, ip
 8000bce:	ea43 4308 	orr.w	r3, r3, r8, lsl #16
 8000bd2:	fba3 9502 	umull	r9, r5, r3, r2
 8000bd6:	eba4 040e 	sub.w	r4, r4, lr
 8000bda:	42ac      	cmp	r4, r5
 8000bdc:	46c8      	mov	r8, r9
 8000bde:	46ae      	mov	lr, r5
 8000be0:	d356      	bcc.n	8000c90 <__udivmoddi4+0x29c>
 8000be2:	d053      	beq.n	8000c8c <__udivmoddi4+0x298>
 8000be4:	b156      	cbz	r6, 8000bfc <__udivmoddi4+0x208>
 8000be6:	ebb0 0208 	subs.w	r2, r0, r8
 8000bea:	eb64 040e 	sbc.w	r4, r4, lr
 8000bee:	fa04 f707 	lsl.w	r7, r4, r7
 8000bf2:	40ca      	lsrs	r2, r1
 8000bf4:	40cc      	lsrs	r4, r1
 8000bf6:	4317      	orrs	r7, r2
 8000bf8:	e9c6 7400 	strd	r7, r4, [r6]
 8000bfc:	4618      	mov	r0, r3
 8000bfe:	2100      	movs	r1, #0
 8000c00:	e8bd 87f0 	ldmia.w	sp!, {r4, r5, r6, r7, r8, r9, sl, pc}
 8000c04:	f1c3 0120 	rsb	r1, r3, #32
 8000c08:	fa02 fc03 	lsl.w	ip, r2, r3
 8000c0c:	fa20 f201 	lsr.w	r2, r0, r1
 8000c10:	fa25 f101 	lsr.w	r1, r5, r1
 8000c14:	409d      	lsls	r5, r3
 8000c16:	432a      	orrs	r2, r5
 8000c18:	ea4f 471c 	mov.w	r7, ip, lsr #16
 8000c1c:	fa1f fe8c 	uxth.w	lr, ip
 8000c20:	fbb1 f0f7 	udiv	r0, r1, r7
 8000c24:	fb07 1510 	mls	r5, r7, r0, r1
 8000c28:	0c11      	lsrs	r1, r2, #16
 8000c2a:	ea41 4105 	orr.w	r1, r1, r5, lsl #16
 8000c2e:	fb00 f50e 	mul.w	r5, r0, lr
 8000c32:	428d      	cmp	r5, r1
 8000c34:	fa04 f403 	lsl.w	r4, r4, r3
 8000c38:	d908      	bls.n	8000c4c <__udivmoddi4+0x258>
 8000c3a:	eb1c 0101 	adds.w	r1, ip, r1
 8000c3e:	f100 38ff 	add.w	r8, r0, #4294967295	; 0xffffffff
 8000c42:	d22f      	bcs.n	8000ca4 <__udivmoddi4+0x2b0>
 8000c44:	428d      	cmp	r5, r1
 8000c46:	d92d      	bls.n	8000ca4 <__udivmoddi4+0x2b0>
 8000c48:	3802      	subs	r0, #2
 8000c4a:	4461      	add	r1, ip
 8000c4c:	1b49      	subs	r1, r1, r5
 8000c4e:	b292      	uxth	r2, r2
 8000c50:	fbb1 f5f7 	udiv	r5, r1, r7
 8000c54:	fb07 1115 	mls	r1, r7, r5, r1
 8000c58:	ea42 4201 	orr.w	r2, r2, r1, lsl #16
 8000c5c:	fb05 f10e 	mul.w	r1, r5, lr
 8000c60:	4291      	cmp	r1, r2
 8000c62:	d908      	bls.n	8000c76 <__udivmoddi4+0x282>
 8000c64:	eb1c 0202 	adds.w	r2, ip, r2
 8000c68:	f105 38ff 	add.w	r8, r5, #4294967295	; 0xffffffff
 8000c6c:	d216      	bcs.n	8000c9c <__udivmoddi4+0x2a8>
 8000c6e:	4291      	cmp	r1, r2
 8000c70:	d914      	bls.n	8000c9c <__udivmoddi4+0x2a8>
 8000c72:	3d02      	subs	r5, #2
 8000c74:	4462      	add	r2, ip
 8000c76:	1a52      	subs	r2, r2, r1
 8000c78:	ea45 4100 	orr.w	r1, r5, r0, lsl #16
 8000c7c:	e738      	b.n	8000af0 <__udivmoddi4+0xfc>
 8000c7e:	4631      	mov	r1, r6
 8000c80:	4630      	mov	r0, r6
 8000c82:	e708      	b.n	8000a96 <__udivmoddi4+0xa2>
 8000c84:	4639      	mov	r1, r7
 8000c86:	e6e6      	b.n	8000a56 <__udivmoddi4+0x62>
 8000c88:	4610      	mov	r0, r2
 8000c8a:	e6fb      	b.n	8000a84 <__udivmoddi4+0x90>
 8000c8c:	4548      	cmp	r0, r9
 8000c8e:	d2a9      	bcs.n	8000be4 <__udivmoddi4+0x1f0>
 8000c90:	ebb9 0802 	subs.w	r8, r9, r2
 8000c94:	eb65 0e0c 	sbc.w	lr, r5, ip
 8000c98:	3b01      	subs	r3, #1
 8000c9a:	e7a3      	b.n	8000be4 <__udivmoddi4+0x1f0>
 8000c9c:	4645      	mov	r5, r8
 8000c9e:	e7ea      	b.n	8000c76 <__udivmoddi4+0x282>
 8000ca0:	462b      	mov	r3, r5
 8000ca2:	e794      	b.n	8000bce <__udivmoddi4+0x1da>
 8000ca4:	4640      	mov	r0, r8
 8000ca6:	e7d1      	b.n	8000c4c <__udivmoddi4+0x258>
 8000ca8:	46d0      	mov	r8, sl
 8000caa:	e77b      	b.n	8000ba4 <__udivmoddi4+0x1b0>
 8000cac:	3d02      	subs	r5, #2
 8000cae:	4462      	add	r2, ip
 8000cb0:	e732      	b.n	8000b18 <__udivmoddi4+0x124>
 8000cb2:	4608      	mov	r0, r1
 8000cb4:	e70a      	b.n	8000acc <__udivmoddi4+0xd8>
 8000cb6:	4464      	add	r4, ip
 8000cb8:	3802      	subs	r0, #2
 8000cba:	e742      	b.n	8000b42 <__udivmoddi4+0x14e>

08000cbc <__aeabi_idiv0>:
 8000cbc:	4770      	bx	lr
 8000cbe:	bf00      	nop

08000cc0 <SystemClock_Config>:
 8000cc0:	b510      	push	{r4, lr}
 8000cc2:	b094      	sub	sp, #80	; 0x50
 8000cc4:	2210      	movs	r2, #16
 8000cc6:	2100      	movs	r1, #0
 8000cc8:	a80a      	add	r0, sp, #40	; 0x28
 8000cca:	f002 fa9c 	bl	8003206 <memset>
 8000cce:	2214      	movs	r2, #20
 8000cd0:	2100      	movs	r1, #0
 8000cd2:	a803      	add	r0, sp, #12
 8000cd4:	f002 fa97 	bl	8003206 <memset>
 8000cd8:	4b20      	ldr	r3, [pc, #128]	; (8000d5c <SystemClock_Config+0x9c>)
 8000cda:	2100      	movs	r1, #0
 8000cdc:	9101      	str	r1, [sp, #4]
 8000cde:	6c1a      	ldr	r2, [r3, #64]	; 0x40
 8000ce0:	f042 5280 	orr.w	r2, r2, #268435456	; 0x10000000
 8000ce4:	641a      	str	r2, [r3, #64]	; 0x40
 8000ce6:	6c1b      	ldr	r3, [r3, #64]	; 0x40
 8000ce8:	4a1d      	ldr	r2, [pc, #116]	; (8000d60 <SystemClock_Config+0xa0>)
 8000cea:	f003 5380 	and.w	r3, r3, #268435456	; 0x10000000
 8000cee:	9301      	str	r3, [sp, #4]
 8000cf0:	9b01      	ldr	r3, [sp, #4]
 8000cf2:	9102      	str	r1, [sp, #8]
 8000cf4:	6813      	ldr	r3, [r2, #0]
 8000cf6:	f423 4340 	bic.w	r3, r3, #49152	; 0xc000
 8000cfa:	f443 4300 	orr.w	r3, r3, #32768	; 0x8000
 8000cfe:	6013      	str	r3, [r2, #0]
 8000d00:	6813      	ldr	r3, [r2, #0]
 8000d02:	f403 4340 	and.w	r3, r3, #49152	; 0xc000
 8000d06:	9302      	str	r3, [sp, #8]
 8000d08:	9b02      	ldr	r3, [sp, #8]
 8000d0a:	2201      	movs	r2, #1
 8000d0c:	f44f 3380 	mov.w	r3, #65536	; 0x10000
 8000d10:	e9cd 2308 	strd	r2, r3, [sp, #32]
 8000d14:	2402      	movs	r4, #2
 8000d16:	f44f 0380 	mov.w	r3, #4194304	; 0x400000
 8000d1a:	e9cd 430e 	strd	r4, r3, [sp, #56]	; 0x38
 8000d1e:	2119      	movs	r1, #25
 8000d20:	f44f 73a8 	mov.w	r3, #336	; 0x150
 8000d24:	e9cd 1310 	strd	r1, r3, [sp, #64]	; 0x40
 8000d28:	a808      	add	r0, sp, #32
 8000d2a:	2304      	movs	r3, #4
 8000d2c:	e9cd 3312 	strd	r3, r3, [sp, #72]	; 0x48
 8000d30:	f001 fd7c 	bl	800282c <HAL_RCC_OscConfig>
 8000d34:	b108      	cbz	r0, 8000d3a <SystemClock_Config+0x7a>
 8000d36:	b672      	cpsid	i
 8000d38:	e7fe      	b.n	8000d38 <SystemClock_Config+0x78>
 8000d3a:	230f      	movs	r3, #15
 8000d3c:	e9cd 3403 	strd	r3, r4, [sp, #12]
 8000d40:	f44f 5380 	mov.w	r3, #4096	; 0x1000
 8000d44:	e9cd 3006 	strd	r3, r0, [sp, #24]
 8000d48:	9005      	str	r0, [sp, #20]
 8000d4a:	4621      	mov	r1, r4
 8000d4c:	a803      	add	r0, sp, #12
 8000d4e:	f001 ff47 	bl	8002be0 <HAL_RCC_ClockConfig>
 8000d52:	b108      	cbz	r0, 8000d58 <SystemClock_Config+0x98>
 8000d54:	b672      	cpsid	i
 8000d56:	e7fe      	b.n	8000d56 <SystemClock_Config+0x96>
 8000d58:	b014      	add	sp, #80	; 0x50
 8000d5a:	bd10      	pop	{r4, pc}
 8000d5c:	40023800 	.word	0x40023800
 8000d60:	40007000 	.word	0x40007000

08000d64 <main>:
 8000d64:	b530      	push	{r4, r5, lr}
 8000d66:	b089      	sub	sp, #36	; 0x24
 8000d68:	f001 fa3c 	bl	80021e4 <HAL_Init>
 8000d6c:	f7ff ffa8 	bl	8000cc0 <SystemClock_Config>
 8000d70:	2214      	movs	r2, #20
 8000d72:	2100      	movs	r1, #0
 8000d74:	a803      	add	r0, sp, #12
 8000d76:	f002 fa46 	bl	8003206 <memset>
 8000d7a:	2400      	movs	r4, #0
 8000d7c:	4b39      	ldr	r3, [pc, #228]	; (8000e64 <main+0x100>)
 8000d7e:	9400      	str	r4, [sp, #0]
 8000d80:	6b1a      	ldr	r2, [r3, #48]	; 0x30
 8000d82:	4839      	ldr	r0, [pc, #228]	; (8000e68 <main+0x104>)
 8000d84:	f042 0204 	orr.w	r2, r2, #4
 8000d88:	631a      	str	r2, [r3, #48]	; 0x30
 8000d8a:	6b1a      	ldr	r2, [r3, #48]	; 0x30
 8000d8c:	f002 0204 	and.w	r2, r2, #4
 8000d90:	9200      	str	r2, [sp, #0]
 8000d92:	9a00      	ldr	r2, [sp, #0]
 8000d94:	9401      	str	r4, [sp, #4]
 8000d96:	6b1a      	ldr	r2, [r3, #48]	; 0x30
 8000d98:	f042 0280 	orr.w	r2, r2, #128	; 0x80
 8000d9c:	631a      	str	r2, [r3, #48]	; 0x30
 8000d9e:	6b1a      	ldr	r2, [r3, #48]	; 0x30
 8000da0:	f002 0280 	and.w	r2, r2, #128	; 0x80
 8000da4:	9201      	str	r2, [sp, #4]
 8000da6:	9a01      	ldr	r2, [sp, #4]
 8000da8:	9402      	str	r4, [sp, #8]
 8000daa:	6b1a      	ldr	r2, [r3, #48]	; 0x30
 8000dac:	f042 0201 	orr.w	r2, r2, #1
 8000db0:	631a      	str	r2, [r3, #48]	; 0x30
 8000db2:	6b1b      	ldr	r3, [r3, #48]	; 0x30
 8000db4:	f003 0301 	and.w	r3, r3, #1
 8000db8:	9302      	str	r3, [sp, #8]
 8000dba:	4622      	mov	r2, r4
 8000dbc:	f44f 5100 	mov.w	r1, #8192	; 0x2000
 8000dc0:	9b02      	ldr	r3, [sp, #8]
 8000dc2:	f001 fd25 	bl	8002810 <HAL_GPIO_WritePin>
 8000dc6:	4622      	mov	r2, r4
 8000dc8:	4828      	ldr	r0, [pc, #160]	; (8000e6c <main+0x108>)
 8000dca:	2110      	movs	r1, #16
 8000dcc:	f001 fd20 	bl	8002810 <HAL_GPIO_WritePin>
 8000dd0:	2501      	movs	r5, #1
 8000dd2:	f44f 5300 	mov.w	r3, #8192	; 0x2000
 8000dd6:	4824      	ldr	r0, [pc, #144]	; (8000e68 <main+0x104>)
 8000dd8:	a903      	add	r1, sp, #12
 8000dda:	e9cd 3503 	strd	r3, r5, [sp, #12]
 8000dde:	e9cd 4405 	strd	r4, r4, [sp, #20]
 8000de2:	f001 fc4d 	bl	8002680 <HAL_GPIO_Init>
 8000de6:	2310      	movs	r3, #16
 8000de8:	4820      	ldr	r0, [pc, #128]	; (8000e6c <main+0x108>)
 8000dea:	a903      	add	r1, sp, #12
 8000dec:	e9cd 3503 	strd	r3, r5, [sp, #12]
 8000df0:	e9cd 4405 	strd	r4, r4, [sp, #20]
 8000df4:	f001 fc44 	bl	8002680 <HAL_GPIO_Init>
 8000df8:	f000 fb91 	bl	800151e <bootloader_init>
 8000dfc:	b908      	cbnz	r0, 8000e02 <main+0x9e>
 8000dfe:	b672      	cpsid	i
 8000e00:	e7fe      	b.n	8000e00 <main+0x9c>
 8000e02:	f000 fb8f 	bl	8001524 <update_available>
 8000e06:	b148      	cbz	r0, 8000e1c <main+0xb8>
 8000e08:	f000 fbaa 	bl	8001560 <flash_process>
 8000e0c:	b9d8      	cbnz	r0, 8000e46 <main+0xe2>
 8000e0e:	4c18      	ldr	r4, [pc, #96]	; (8000e70 <main+0x10c>)
 8000e10:	4d15      	ldr	r5, [pc, #84]	; (8000e68 <main+0x104>)
 8000e12:	7823      	ldrb	r3, [r4, #0]
 8000e14:	2b0f      	cmp	r3, #15
 8000e16:	d118      	bne.n	8000e4a <main+0xe6>
 8000e18:	2300      	movs	r3, #0
 8000e1a:	7023      	strb	r3, [r4, #0]
 8000e1c:	f000 fb78 	bl	8001510 <disable_peripheral_clock>
 8000e20:	f04f 23e0 	mov.w	r3, #3758153728	; 0xe000e000
 8000e24:	2400      	movs	r4, #0
 8000e26:	611c      	str	r4, [r3, #16]
 8000e28:	615c      	str	r4, [r3, #20]
 8000e2a:	619c      	str	r4, [r3, #24]
 8000e2c:	4b11      	ldr	r3, [pc, #68]	; (8000e74 <main+0x110>)
 8000e2e:	681a      	ldr	r2, [r3, #0]
 8000e30:	f382 8808 	msr	MSP, r2
 8000e34:	f3bf 8f4f 	dsb	sy
 8000e38:	f3bf 8f6f 	isb	sy
 8000e3c:	685b      	ldr	r3, [r3, #4]
 8000e3e:	4798      	blx	r3
 8000e40:	4620      	mov	r0, r4
 8000e42:	b009      	add	sp, #36	; 0x24
 8000e44:	bd30      	pop	{r4, r5, pc}
 8000e46:	b672      	cpsid	i
 8000e48:	e7fe      	b.n	8000e48 <main+0xe4>
 8000e4a:	f44f 5100 	mov.w	r1, #8192	; 0x2000
 8000e4e:	4628      	mov	r0, r5
 8000e50:	f001 fce3 	bl	800281a <HAL_GPIO_TogglePin>
 8000e54:	2064      	movs	r0, #100	; 0x64
 8000e56:	f001 f9f1 	bl	800223c <HAL_Delay>
 8000e5a:	7823      	ldrb	r3, [r4, #0]
 8000e5c:	3301      	adds	r3, #1
 8000e5e:	7023      	strb	r3, [r4, #0]
 8000e60:	e7d7      	b.n	8000e12 <main+0xae>
 8000e62:	bf00      	nop
 8000e64:	40023800 	.word	0x40023800
 8000e68:	40020800 	.word	0x40020800
 8000e6c:	40020000 	.word	0x40020000
 8000e70:	2000002c 	.word	0x2000002c
 8000e74:	08004000 	.word	0x08004000

08000e78 <HAL_MspInit>:
 8000e78:	b082      	sub	sp, #8
 8000e7a:	4b0c      	ldr	r3, [pc, #48]	; (8000eac <HAL_MspInit+0x34>)
 8000e7c:	2100      	movs	r1, #0
 8000e7e:	9100      	str	r1, [sp, #0]
 8000e80:	6c5a      	ldr	r2, [r3, #68]	; 0x44
 8000e82:	f442 4280 	orr.w	r2, r2, #16384	; 0x4000
 8000e86:	645a      	str	r2, [r3, #68]	; 0x44
 8000e88:	6c5a      	ldr	r2, [r3, #68]	; 0x44
 8000e8a:	f402 4280 	and.w	r2, r2, #16384	; 0x4000
 8000e8e:	9200      	str	r2, [sp, #0]
 8000e90:	9a00      	ldr	r2, [sp, #0]
 8000e92:	9101      	str	r1, [sp, #4]
 8000e94:	6c1a      	ldr	r2, [r3, #64]	; 0x40
 8000e96:	f042 5280 	orr.w	r2, r2, #268435456	; 0x10000000
 8000e9a:	641a      	str	r2, [r3, #64]	; 0x40
 8000e9c:	6c1b      	ldr	r3, [r3, #64]	; 0x40
 8000e9e:	f003 5380 	and.w	r3, r3, #268435456	; 0x10000000
 8000ea2:	9301      	str	r3, [sp, #4]
 8000ea4:	9b01      	ldr	r3, [sp, #4]
 8000ea6:	b002      	add	sp, #8
 8000ea8:	4770      	bx	lr
 8000eaa:	bf00      	nop
 8000eac:	40023800 	.word	0x40023800

08000eb0 <HAL_SPI_MspInit>:
 8000eb0:	b510      	push	{r4, lr}
 8000eb2:	4604      	mov	r4, r0
 8000eb4:	b088      	sub	sp, #32
 8000eb6:	2214      	movs	r2, #20
 8000eb8:	2100      	movs	r1, #0
 8000eba:	a803      	add	r0, sp, #12
 8000ebc:	f002 f9a3 	bl	8003206 <memset>
 8000ec0:	6822      	ldr	r2, [r4, #0]
 8000ec2:	4b14      	ldr	r3, [pc, #80]	; (8000f14 <HAL_SPI_MspInit+0x64>)
 8000ec4:	429a      	cmp	r2, r3
 8000ec6:	d122      	bne.n	8000f0e <HAL_SPI_MspInit+0x5e>
 8000ec8:	f503 3384 	add.w	r3, r3, #67584	; 0x10800
 8000ecc:	2100      	movs	r1, #0
 8000ece:	9101      	str	r1, [sp, #4]
 8000ed0:	6c5a      	ldr	r2, [r3, #68]	; 0x44
 8000ed2:	4811      	ldr	r0, [pc, #68]	; (8000f18 <HAL_SPI_MspInit+0x68>)
 8000ed4:	f442 5280 	orr.w	r2, r2, #4096	; 0x1000
 8000ed8:	645a      	str	r2, [r3, #68]	; 0x44
 8000eda:	6c5a      	ldr	r2, [r3, #68]	; 0x44
 8000edc:	f402 5280 	and.w	r2, r2, #4096	; 0x1000
 8000ee0:	9201      	str	r2, [sp, #4]
 8000ee2:	9a01      	ldr	r2, [sp, #4]
 8000ee4:	9102      	str	r1, [sp, #8]
 8000ee6:	6b1a      	ldr	r2, [r3, #48]	; 0x30
 8000ee8:	f042 0201 	orr.w	r2, r2, #1
 8000eec:	631a      	str	r2, [r3, #48]	; 0x30
 8000eee:	6b1b      	ldr	r3, [r3, #48]	; 0x30
 8000ef0:	f003 0301 	and.w	r3, r3, #1
 8000ef4:	9302      	str	r3, [sp, #8]
 8000ef6:	9b02      	ldr	r3, [sp, #8]
 8000ef8:	22e0      	movs	r2, #224	; 0xe0
 8000efa:	2302      	movs	r3, #2
 8000efc:	2103      	movs	r1, #3
 8000efe:	e9cd 2303 	strd	r2, r3, [sp, #12]
 8000f02:	2305      	movs	r3, #5
 8000f04:	e9cd 1306 	strd	r1, r3, [sp, #24]
 8000f08:	a903      	add	r1, sp, #12
 8000f0a:	f001 fbb9 	bl	8002680 <HAL_GPIO_Init>
 8000f0e:	b008      	add	sp, #32
 8000f10:	bd10      	pop	{r4, pc}
 8000f12:	bf00      	nop
 8000f14:	40013000 	.word	0x40013000
 8000f18:	40020000 	.word	0x40020000

08000f1c <NMI_Handler>:
 8000f1c:	e7fe      	b.n	8000f1c <NMI_Handler>

08000f1e <HardFault_Handler>:
 8000f1e:	e7fe      	b.n	8000f1e <HardFault_Handler>

08000f20 <MemManage_Handler>:
 8000f20:	e7fe      	b.n	8000f20 <MemManage_Handler>

08000f22 <BusFault_Handler>:
 8000f22:	e7fe      	b.n	8000f22 <BusFault_Handler>

08000f24 <UsageFault_Handler>:
 8000f24:	e7fe      	b.n	8000f24 <UsageFault_Handler>

08000f26 <SVC_Handler>:
 8000f26:	4770      	bx	lr

08000f28 <DebugMon_Handler>:
 8000f28:	4770      	bx	lr

08000f2a <PendSV_Handler>:
 8000f2a:	4770      	bx	lr

08000f2c <SysTick_Handler>:
 8000f2c:	f001 b974 	b.w	8002218 <HAL_IncTick>

08000f30 <SystemInit>:
 8000f30:	4a03      	ldr	r2, [pc, #12]	; (8000f40 <SystemInit+0x10>)
 8000f32:	f8d2 3088 	ldr.w	r3, [r2, #136]	; 0x88
 8000f36:	f443 0370 	orr.w	r3, r3, #15728640	; 0xf00000
 8000f3a:	f8c2 3088 	str.w	r3, [r2, #136]	; 0x88
 8000f3e:	4770      	bx	lr
 8000f40:	e000ed00 	.word	0xe000ed00

08000f44 <Reset_Handler>:
 8000f44:	f8df d034 	ldr.w	sp, [pc, #52]	; 8000f7c <LoopFillZerobss+0xe>
 8000f48:	f7ff fff2 	bl	8000f30 <SystemInit>
 8000f4c:	480c      	ldr	r0, [pc, #48]	; (8000f80 <LoopFillZerobss+0x12>)
 8000f4e:	490d      	ldr	r1, [pc, #52]	; (8000f84 <LoopFillZerobss+0x16>)
 8000f50:	4a0d      	ldr	r2, [pc, #52]	; (8000f88 <LoopFillZerobss+0x1a>)
 8000f52:	2300      	movs	r3, #0
 8000f54:	e002      	b.n	8000f5c <LoopCopyDataInit>

08000f56 <CopyDataInit>:
 8000f56:	58d4      	ldr	r4, [r2, r3]
 8000f58:	50c4      	str	r4, [r0, r3]
 8000f5a:	3304      	adds	r3, #4

08000f5c <LoopCopyDataInit>:
 8000f5c:	18c4      	adds	r4, r0, r3
 8000f5e:	428c      	cmp	r4, r1
 8000f60:	d3f9      	bcc.n	8000f56 <CopyDataInit>
 8000f62:	4a0a      	ldr	r2, [pc, #40]	; (8000f8c <LoopFillZerobss+0x1e>)
 8000f64:	4c0a      	ldr	r4, [pc, #40]	; (8000f90 <LoopFillZerobss+0x22>)
 8000f66:	2300      	movs	r3, #0
 8000f68:	e001      	b.n	8000f6e <LoopFillZerobss>

08000f6a <FillZerobss>:
 8000f6a:	6013      	str	r3, [r2, #0]
 8000f6c:	3204      	adds	r2, #4

08000f6e <LoopFillZerobss>:
 8000f6e:	42a2      	cmp	r2, r4
 8000f70:	d3fb      	bcc.n	8000f6a <FillZerobss>
 8000f72:	f002 f951 	bl	8003218 <__libc_init_array>
 8000f76:	f7ff fef5 	bl	8000d64 <main>
 8000f7a:	4770      	bx	lr
 8000f7c:	20010000 	.word	0x20010000
 8000f80:	20000000 	.word	0x20000000
 8000f84:	20000010 	.word	0x20000010
 8000f88:	080032d4 	.word	0x080032d4
 8000f8c:	20000010 	.word	0x20000010
 8000f90:	200003ec 	.word	0x200003ec

08000f94 <ADC_IRQHandler>:
 8000f94:	e7fe      	b.n	8000f94 <ADC_IRQHandler>
	...

08000f98 <SPI_transfer>:
 8000f98:	b57f      	push	{r0, r1, r2, r3, r4, r5, r6, lr}
 8000f9a:	f04f 33ff 	mov.w	r3, #4294967295	; 0xffffffff
 8000f9e:	f88d 000f 	strb.w	r0, [sp, #15]
 8000fa2:	9300      	str	r3, [sp, #0]
 8000fa4:	f10d 0217 	add.w	r2, sp, #23
 8000fa8:	4807      	ldr	r0, [pc, #28]	; (8000fc8 <SPI_transfer+0x30>)
 8000faa:	2301      	movs	r3, #1
 8000fac:	f10d 010f 	add.w	r1, sp, #15
 8000fb0:	f002 f834 	bl	800301c <HAL_SPI_TransmitReceive>
 8000fb4:	4a04      	ldr	r2, [pc, #16]	; (8000fc8 <SPI_transfer+0x30>)
 8000fb6:	f892 3051 	ldrb.w	r3, [r2, #81]	; 0x51
 8000fba:	2b02      	cmp	r3, #2
 8000fbc:	d0fb      	beq.n	8000fb6 <SPI_transfer+0x1e>
 8000fbe:	f89d 0017 	ldrb.w	r0, [sp, #23]
 8000fc2:	b007      	add	sp, #28
 8000fc4:	f85d fb04 	ldr.w	pc, [sp], #4
 8000fc8:	20000030 	.word	0x20000030

08000fcc <SD_powerUpSeq>:
 8000fcc:	b510      	push	{r4, lr}
 8000fce:	480d      	ldr	r0, [pc, #52]	; (8001004 <SD_powerUpSeq+0x38>)
 8000fd0:	2201      	movs	r2, #1
 8000fd2:	2110      	movs	r1, #16
 8000fd4:	f001 fc1c 	bl	8002810 <HAL_GPIO_WritePin>
 8000fd8:	2001      	movs	r0, #1
 8000fda:	f001 f92f 	bl	800223c <HAL_Delay>
 8000fde:	2414      	movs	r4, #20
 8000fe0:	20ff      	movs	r0, #255	; 0xff
 8000fe2:	3c01      	subs	r4, #1
 8000fe4:	f7ff ffd8 	bl	8000f98 <SPI_transfer>
 8000fe8:	f014 04ff 	ands.w	r4, r4, #255	; 0xff
 8000fec:	d1f8      	bne.n	8000fe0 <SD_powerUpSeq+0x14>
 8000fee:	4805      	ldr	r0, [pc, #20]	; (8001004 <SD_powerUpSeq+0x38>)
 8000ff0:	2201      	movs	r2, #1
 8000ff2:	2110      	movs	r1, #16
 8000ff4:	f001 fc0c 	bl	8002810 <HAL_GPIO_WritePin>
 8000ff8:	e8bd 4010 	ldmia.w	sp!, {r4, lr}
 8000ffc:	20ff      	movs	r0, #255	; 0xff
 8000ffe:	f7ff bfcb 	b.w	8000f98 <SPI_transfer>
 8001002:	bf00      	nop
 8001004:	40020000 	.word	0x40020000

08001008 <SD_command>:
 8001008:	b538      	push	{r3, r4, r5, lr}
 800100a:	f040 0040 	orr.w	r0, r0, #64	; 0x40
 800100e:	460c      	mov	r4, r1
 8001010:	4615      	mov	r5, r2
 8001012:	f7ff ffc1 	bl	8000f98 <SPI_transfer>
 8001016:	0e20      	lsrs	r0, r4, #24
 8001018:	f7ff ffbe 	bl	8000f98 <SPI_transfer>
 800101c:	f3c4 4007 	ubfx	r0, r4, #16, #8
 8001020:	f7ff ffba 	bl	8000f98 <SPI_transfer>
 8001024:	f3c4 2007 	ubfx	r0, r4, #8, #8
 8001028:	f7ff ffb6 	bl	8000f98 <SPI_transfer>
 800102c:	b2e0      	uxtb	r0, r4
 800102e:	f7ff ffb3 	bl	8000f98 <SPI_transfer>
 8001032:	f045 0001 	orr.w	r0, r5, #1
 8001036:	e8bd 4038 	ldmia.w	sp!, {r3, r4, r5, lr}
 800103a:	f7ff bfad 	b.w	8000f98 <SPI_transfer>

0800103e <SD_readRes1>:
 800103e:	b510      	push	{r4, lr}
 8001040:	2409      	movs	r4, #9
 8001042:	20ff      	movs	r0, #255	; 0xff
 8001044:	f7ff ffa8 	bl	8000f98 <SPI_transfer>
 8001048:	28ff      	cmp	r0, #255	; 0xff
 800104a:	d103      	bne.n	8001054 <SD_readRes1+0x16>
 800104c:	3c01      	subs	r4, #1
 800104e:	f014 04ff 	ands.w	r4, r4, #255	; 0xff
 8001052:	d1f6      	bne.n	8001042 <SD_readRes1+0x4>
 8001054:	bd10      	pop	{r4, pc}
	...

08001058 <SD_goIdleState>:
 8001058:	b538      	push	{r3, r4, r5, lr}
 800105a:	4d10      	ldr	r5, [pc, #64]	; (800109c <SD_goIdleState+0x44>)
 800105c:	20ff      	movs	r0, #255	; 0xff
 800105e:	f7ff ff9b 	bl	8000f98 <SPI_transfer>
 8001062:	2200      	movs	r2, #0
 8001064:	2110      	movs	r1, #16
 8001066:	4628      	mov	r0, r5
 8001068:	f001 fbd2 	bl	8002810 <HAL_GPIO_WritePin>
 800106c:	20ff      	movs	r0, #255	; 0xff
 800106e:	f7ff ff93 	bl	8000f98 <SPI_transfer>
 8001072:	2100      	movs	r1, #0
 8001074:	2294      	movs	r2, #148	; 0x94
 8001076:	4608      	mov	r0, r1
 8001078:	f7ff ffc6 	bl	8001008 <SD_command>
 800107c:	f7ff ffdf 	bl	800103e <SD_readRes1>
 8001080:	4604      	mov	r4, r0
 8001082:	20ff      	movs	r0, #255	; 0xff
 8001084:	f7ff ff88 	bl	8000f98 <SPI_transfer>
 8001088:	2201      	movs	r2, #1
 800108a:	2110      	movs	r1, #16
 800108c:	4628      	mov	r0, r5
 800108e:	f001 fbbf 	bl	8002810 <HAL_GPIO_WritePin>
 8001092:	20ff      	movs	r0, #255	; 0xff
 8001094:	f7ff ff80 	bl	8000f98 <SPI_transfer>
 8001098:	4620      	mov	r0, r4
 800109a:	bd38      	pop	{r3, r4, r5, pc}
 800109c:	40020000 	.word	0x40020000

080010a0 <SD_readRes3_7>:
 80010a0:	b510      	push	{r4, lr}
 80010a2:	4604      	mov	r4, r0
 80010a4:	f7ff ffcb 	bl	800103e <SD_readRes1>
 80010a8:	2801      	cmp	r0, #1
 80010aa:	7020      	strb	r0, [r4, #0]
 80010ac:	d80f      	bhi.n	80010ce <SD_readRes3_7+0x2e>
 80010ae:	20ff      	movs	r0, #255	; 0xff
 80010b0:	f7ff ff72 	bl	8000f98 <SPI_transfer>
 80010b4:	7060      	strb	r0, [r4, #1]
 80010b6:	20ff      	movs	r0, #255	; 0xff
 80010b8:	f7ff ff6e 	bl	8000f98 <SPI_transfer>
 80010bc:	70a0      	strb	r0, [r4, #2]
 80010be:	20ff      	movs	r0, #255	; 0xff
 80010c0:	f7ff ff6a 	bl	8000f98 <SPI_transfer>
 80010c4:	70e0      	strb	r0, [r4, #3]
 80010c6:	20ff      	movs	r0, #255	; 0xff
 80010c8:	f7ff ff66 	bl	8000f98 <SPI_transfer>
 80010cc:	7120      	strb	r0, [r4, #4]
 80010ce:	bd10      	pop	{r4, pc}

080010d0 <SD_sendIfCond>:
 80010d0:	b538      	push	{r3, r4, r5, lr}
 80010d2:	4d11      	ldr	r5, [pc, #68]	; (8001118 <SD_sendIfCond+0x48>)
 80010d4:	4604      	mov	r4, r0
 80010d6:	20ff      	movs	r0, #255	; 0xff
 80010d8:	f7ff ff5e 	bl	8000f98 <SPI_transfer>
 80010dc:	2200      	movs	r2, #0
 80010de:	2110      	movs	r1, #16
 80010e0:	4628      	mov	r0, r5
 80010e2:	f001 fb95 	bl	8002810 <HAL_GPIO_WritePin>
 80010e6:	20ff      	movs	r0, #255	; 0xff
 80010e8:	f7ff ff56 	bl	8000f98 <SPI_transfer>
 80010ec:	2286      	movs	r2, #134	; 0x86
 80010ee:	f44f 71d5 	mov.w	r1, #426	; 0x1aa
 80010f2:	2008      	movs	r0, #8
 80010f4:	f7ff ff88 	bl	8001008 <SD_command>
 80010f8:	4620      	mov	r0, r4
 80010fa:	f7ff ffd1 	bl	80010a0 <SD_readRes3_7>
 80010fe:	20ff      	movs	r0, #255	; 0xff
 8001100:	f7ff ff4a 	bl	8000f98 <SPI_transfer>
 8001104:	4628      	mov	r0, r5
 8001106:	2201      	movs	r2, #1
 8001108:	2110      	movs	r1, #16
 800110a:	f001 fb81 	bl	8002810 <HAL_GPIO_WritePin>
 800110e:	e8bd 4038 	ldmia.w	sp!, {r3, r4, r5, lr}
 8001112:	20ff      	movs	r0, #255	; 0xff
 8001114:	f7ff bf40 	b.w	8000f98 <SPI_transfer>
 8001118:	40020000 	.word	0x40020000

0800111c <SD_readOCR>:
 800111c:	b538      	push	{r3, r4, r5, lr}
 800111e:	4d11      	ldr	r5, [pc, #68]	; (8001164 <SD_readOCR+0x48>)
 8001120:	4604      	mov	r4, r0
 8001122:	20ff      	movs	r0, #255	; 0xff
 8001124:	f7ff ff38 	bl	8000f98 <SPI_transfer>
 8001128:	2200      	movs	r2, #0
 800112a:	2110      	movs	r1, #16
 800112c:	4628      	mov	r0, r5
 800112e:	f001 fb6f 	bl	8002810 <HAL_GPIO_WritePin>
 8001132:	20ff      	movs	r0, #255	; 0xff
 8001134:	f7ff ff30 	bl	8000f98 <SPI_transfer>
 8001138:	2200      	movs	r2, #0
 800113a:	4611      	mov	r1, r2
 800113c:	203a      	movs	r0, #58	; 0x3a
 800113e:	f7ff ff63 	bl	8001008 <SD_command>
 8001142:	4620      	mov	r0, r4
 8001144:	f7ff ffac 	bl	80010a0 <SD_readRes3_7>
 8001148:	20ff      	movs	r0, #255	; 0xff
 800114a:	f7ff ff25 	bl	8000f98 <SPI_transfer>
 800114e:	4628      	mov	r0, r5
 8001150:	2201      	movs	r2, #1
 8001152:	2110      	movs	r1, #16
 8001154:	f001 fb5c 	bl	8002810 <HAL_GPIO_WritePin>
 8001158:	e8bd 4038 	ldmia.w	sp!, {r3, r4, r5, lr}
 800115c:	20ff      	movs	r0, #255	; 0xff
 800115e:	f7ff bf1b 	b.w	8000f98 <SPI_transfer>
 8001162:	bf00      	nop
 8001164:	40020000 	.word	0x40020000

08001168 <SD_sendApp>:
 8001168:	b538      	push	{r3, r4, r5, lr}
 800116a:	4d10      	ldr	r5, [pc, #64]	; (80011ac <SD_sendApp+0x44>)
 800116c:	20ff      	movs	r0, #255	; 0xff
 800116e:	f7ff ff13 	bl	8000f98 <SPI_transfer>
 8001172:	2200      	movs	r2, #0
 8001174:	2110      	movs	r1, #16
 8001176:	4628      	mov	r0, r5
 8001178:	f001 fb4a 	bl	8002810 <HAL_GPIO_WritePin>
 800117c:	20ff      	movs	r0, #255	; 0xff
 800117e:	f7ff ff0b 	bl	8000f98 <SPI_transfer>
 8001182:	2200      	movs	r2, #0
 8001184:	4611      	mov	r1, r2
 8001186:	2037      	movs	r0, #55	; 0x37
 8001188:	f7ff ff3e 	bl	8001008 <SD_command>
 800118c:	f7ff ff57 	bl	800103e <SD_readRes1>
 8001190:	4604      	mov	r4, r0
 8001192:	20ff      	movs	r0, #255	; 0xff
 8001194:	f7ff ff00 	bl	8000f98 <SPI_transfer>
 8001198:	2201      	movs	r2, #1
 800119a:	2110      	movs	r1, #16
 800119c:	4628      	mov	r0, r5
 800119e:	f001 fb37 	bl	8002810 <HAL_GPIO_WritePin>
 80011a2:	20ff      	movs	r0, #255	; 0xff
 80011a4:	f7ff fef8 	bl	8000f98 <SPI_transfer>
 80011a8:	4620      	mov	r0, r4
 80011aa:	bd38      	pop	{r3, r4, r5, pc}
 80011ac:	40020000 	.word	0x40020000

080011b0 <SD_sendOpCond>:
 80011b0:	b538      	push	{r3, r4, r5, lr}
 80011b2:	4d11      	ldr	r5, [pc, #68]	; (80011f8 <SD_sendOpCond+0x48>)
 80011b4:	20ff      	movs	r0, #255	; 0xff
 80011b6:	f7ff feef 	bl	8000f98 <SPI_transfer>
 80011ba:	2200      	movs	r2, #0
 80011bc:	2110      	movs	r1, #16
 80011be:	4628      	mov	r0, r5
 80011c0:	f001 fb26 	bl	8002810 <HAL_GPIO_WritePin>
 80011c4:	20ff      	movs	r0, #255	; 0xff
 80011c6:	f7ff fee7 	bl	8000f98 <SPI_transfer>
 80011ca:	2200      	movs	r2, #0
 80011cc:	f04f 4180 	mov.w	r1, #1073741824	; 0x40000000
 80011d0:	2029      	movs	r0, #41	; 0x29
 80011d2:	f7ff ff19 	bl	8001008 <SD_command>
 80011d6:	f7ff ff32 	bl	800103e <SD_readRes1>
 80011da:	4604      	mov	r4, r0
 80011dc:	20ff      	movs	r0, #255	; 0xff
 80011de:	f7ff fedb 	bl	8000f98 <SPI_transfer>
 80011e2:	2201      	movs	r2, #1
 80011e4:	2110      	movs	r1, #16
 80011e6:	4628      	mov	r0, r5
 80011e8:	f001 fb12 	bl	8002810 <HAL_GPIO_WritePin>
 80011ec:	20ff      	movs	r0, #255	; 0xff
 80011ee:	f7ff fed3 	bl	8000f98 <SPI_transfer>
 80011f2:	4620      	mov	r0, r4
 80011f4:	bd38      	pop	{r3, r4, r5, pc}
 80011f6:	bf00      	nop
 80011f8:	40020000 	.word	0x40020000

080011fc <SD_read_start>:
 80011fc:	e92d 43f8 	stmdb	sp!, {r3, r4, r5, r6, r7, r8, r9, lr}
 8001200:	4604      	mov	r4, r0
 8001202:	460d      	mov	r5, r1
 8001204:	4691      	mov	r9, r2
 8001206:	f7ff ff1a 	bl	800103e <SD_readRes1>
 800120a:	4607      	mov	r7, r0
 800120c:	b140      	cbz	r0, 8001220 <SD_read_start+0x24>
 800120e:	4638      	mov	r0, r7
 8001210:	e8bd 83f8 	ldmia.w	sp!, {r3, r4, r5, r6, r7, r8, r9, pc}
 8001214:	3e01      	subs	r6, #1
 8001216:	b2b6      	uxth	r6, r6
 8001218:	b926      	cbnz	r6, 8001224 <SD_read_start+0x28>
 800121a:	f889 8000 	strb.w	r8, [r9]
 800121e:	e7f6      	b.n	800120e <SD_read_start+0x12>
 8001220:	f241 1695 	movw	r6, #4501	; 0x1195
 8001224:	20ff      	movs	r0, #255	; 0xff
 8001226:	f7ff feb7 	bl	8000f98 <SPI_transfer>
 800122a:	28fe      	cmp	r0, #254	; 0xfe
 800122c:	4680      	mov	r8, r0
 800122e:	d1f1      	bne.n	8001214 <SD_read_start+0x18>
 8001230:	4425      	add	r5, r4
 8001232:	42ac      	cmp	r4, r5
 8001234:	f04f 00ff 	mov.w	r0, #255	; 0xff
 8001238:	d105      	bne.n	8001246 <SD_read_start+0x4a>
 800123a:	f7ff fead 	bl	8000f98 <SPI_transfer>
 800123e:	20ff      	movs	r0, #255	; 0xff
 8001240:	f7ff feaa 	bl	8000f98 <SPI_transfer>
 8001244:	e7e9      	b.n	800121a <SD_read_start+0x1e>
 8001246:	f7ff fea7 	bl	8000f98 <SPI_transfer>
 800124a:	f804 0b01 	strb.w	r0, [r4], #1
 800124e:	e7f0      	b.n	8001232 <SD_read_start+0x36>

08001250 <SD_init>:
 8001250:	b530      	push	{r4, r5, lr}
 8001252:	b089      	sub	sp, #36	; 0x24
 8001254:	2214      	movs	r2, #20
 8001256:	2100      	movs	r1, #0
 8001258:	a803      	add	r0, sp, #12
 800125a:	f001 ffd4 	bl	8003206 <memset>
 800125e:	4830      	ldr	r0, [pc, #192]	; (8001320 <SD_init+0xd0>)
 8001260:	4930      	ldr	r1, [pc, #192]	; (8001324 <SD_init+0xd4>)
 8001262:	f44f 7382 	mov.w	r3, #260	; 0x104
 8001266:	e9c0 1300 	strd	r1, r3, [r0]
 800126a:	2300      	movs	r3, #0
 800126c:	e9c0 3302 	strd	r3, r3, [r0, #8]
 8001270:	e9c0 3304 	strd	r3, r3, [r0, #16]
 8001274:	e9c0 3308 	strd	r3, r3, [r0, #32]
 8001278:	f44f 7400 	mov.w	r4, #512	; 0x200
 800127c:	2208      	movs	r2, #8
 800127e:	6283      	str	r3, [r0, #40]	; 0x28
 8001280:	230a      	movs	r3, #10
 8001282:	e9c0 4206 	strd	r4, r2, [r0, #24]
 8001286:	62c3      	str	r3, [r0, #44]	; 0x2c
 8001288:	f001 fe6c 	bl	8002f64 <HAL_SPI_Init>
 800128c:	4604      	mov	r4, r0
 800128e:	b108      	cbz	r0, 8001294 <SD_init+0x44>
 8001290:	b672      	cpsid	i
 8001292:	e7fe      	b.n	8001292 <SD_init+0x42>
 8001294:	2210      	movs	r2, #16
 8001296:	2301      	movs	r3, #1
 8001298:	e9cd 0005 	strd	r0, r0, [sp, #20]
 800129c:	a903      	add	r1, sp, #12
 800129e:	4822      	ldr	r0, [pc, #136]	; (8001328 <SD_init+0xd8>)
 80012a0:	e9cd 2303 	strd	r2, r3, [sp, #12]
 80012a4:	f001 f9ec 	bl	8002680 <HAL_GPIO_Init>
 80012a8:	f7ff fe90 	bl	8000fcc <SD_powerUpSeq>
 80012ac:	f7ff fed4 	bl	8001058 <SD_goIdleState>
 80012b0:	2801      	cmp	r0, #1
 80012b2:	f88d 0004 	strb.w	r0, [sp, #4]
 80012b6:	d125      	bne.n	8001304 <SD_init+0xb4>
 80012b8:	a801      	add	r0, sp, #4
 80012ba:	f7ff ff09 	bl	80010d0 <SD_sendIfCond>
 80012be:	f89d 5004 	ldrb.w	r5, [sp, #4]
 80012c2:	2d01      	cmp	r5, #1
 80012c4:	d124      	bne.n	8001310 <SD_init+0xc0>
 80012c6:	f89d 3008 	ldrb.w	r3, [sp, #8]
 80012ca:	2baa      	cmp	r3, #170	; 0xaa
 80012cc:	d120      	bne.n	8001310 <SD_init+0xc0>
 80012ce:	2465      	movs	r4, #101	; 0x65
 80012d0:	f7ff ff4a 	bl	8001168 <SD_sendApp>
 80012d4:	2801      	cmp	r0, #1
 80012d6:	f88d 0004 	strb.w	r0, [sp, #4]
 80012da:	d803      	bhi.n	80012e4 <SD_init+0x94>
 80012dc:	f7ff ff68 	bl	80011b0 <SD_sendOpCond>
 80012e0:	f88d 0004 	strb.w	r0, [sp, #4]
 80012e4:	200a      	movs	r0, #10
 80012e6:	f000 ffa9 	bl	800223c <HAL_Delay>
 80012ea:	f89d 3004 	ldrb.w	r3, [sp, #4]
 80012ee:	b98b      	cbnz	r3, 8001314 <SD_init+0xc4>
 80012f0:	a801      	add	r0, sp, #4
 80012f2:	f7ff ff13 	bl	800111c <SD_readOCR>
 80012f6:	f99d 3005 	ldrsb.w	r3, [sp, #5]
 80012fa:	2b00      	cmp	r3, #0
 80012fc:	da08      	bge.n	8001310 <SD_init+0xc0>
 80012fe:	4628      	mov	r0, r5
 8001300:	b009      	add	sp, #36	; 0x24
 8001302:	bd30      	pop	{r4, r5, pc}
 8001304:	3401      	adds	r4, #1
 8001306:	b2e4      	uxtb	r4, r4
 8001308:	2c32      	cmp	r4, #50	; 0x32
 800130a:	d9cf      	bls.n	80012ac <SD_init+0x5c>
 800130c:	2800      	cmp	r0, #0
 800130e:	d1cd      	bne.n	80012ac <SD_init+0x5c>
 8001310:	2502      	movs	r5, #2
 8001312:	e7f4      	b.n	80012fe <SD_init+0xae>
 8001314:	3c01      	subs	r4, #1
 8001316:	f014 04ff 	ands.w	r4, r4, #255	; 0xff
 800131a:	d1d9      	bne.n	80012d0 <SD_init+0x80>
 800131c:	e7f8      	b.n	8001310 <SD_init+0xc0>
 800131e:	bf00      	nop
 8001320:	20000030 	.word	0x20000030
 8001324:	40013000 	.word	0x40013000
 8001328:	40020000 	.word	0x40020000

0800132c <SD_readSingleBlock>:
 800132c:	e92d 41f0 	stmdb	sp!, {r4, r5, r6, r7, r8, lr}
 8001330:	24ff      	movs	r4, #255	; 0xff
 8001332:	f8df 8054 	ldr.w	r8, [pc, #84]	; 8001388 <SD_readSingleBlock+0x5c>
 8001336:	7014      	strb	r4, [r2, #0]
 8001338:	4607      	mov	r7, r0
 800133a:	4620      	mov	r0, r4
 800133c:	460e      	mov	r6, r1
 800133e:	4615      	mov	r5, r2
 8001340:	f7ff fe2a 	bl	8000f98 <SPI_transfer>
 8001344:	2200      	movs	r2, #0
 8001346:	2110      	movs	r1, #16
 8001348:	4640      	mov	r0, r8
 800134a:	f001 fa61 	bl	8002810 <HAL_GPIO_WritePin>
 800134e:	4620      	mov	r0, r4
 8001350:	f7ff fe22 	bl	8000f98 <SPI_transfer>
 8001354:	4639      	mov	r1, r7
 8001356:	2295      	movs	r2, #149	; 0x95
 8001358:	2011      	movs	r0, #17
 800135a:	f7ff fe55 	bl	8001008 <SD_command>
 800135e:	462a      	mov	r2, r5
 8001360:	f44f 7100 	mov.w	r1, #512	; 0x200
 8001364:	4630      	mov	r0, r6
 8001366:	f7ff ff49 	bl	80011fc <SD_read_start>
 800136a:	4605      	mov	r5, r0
 800136c:	4620      	mov	r0, r4
 800136e:	f7ff fe13 	bl	8000f98 <SPI_transfer>
 8001372:	2201      	movs	r2, #1
 8001374:	2110      	movs	r1, #16
 8001376:	4640      	mov	r0, r8
 8001378:	f001 fa4a 	bl	8002810 <HAL_GPIO_WritePin>
 800137c:	4620      	mov	r0, r4
 800137e:	f7ff fe0b 	bl	8000f98 <SPI_transfer>
 8001382:	4628      	mov	r0, r5
 8001384:	e8bd 81f0 	ldmia.w	sp!, {r4, r5, r6, r7, r8, pc}
 8001388:	40020000 	.word	0x40020000

0800138c <SD_readSector>:
 800138c:	b507      	push	{r0, r1, r2, lr}
 800138e:	f10d 0207 	add.w	r2, sp, #7
 8001392:	f7ff ffcb 	bl	800132c <SD_readSingleBlock>
 8001396:	b958      	cbnz	r0, 80013b0 <SD_readSector+0x24>
 8001398:	f89d 3007 	ldrb.w	r3, [sp, #7]
 800139c:	f013 0ff0 	tst.w	r3, #240	; 0xf0
 80013a0:	d006      	beq.n	80013b0 <SD_readSector+0x24>
 80013a2:	2bff      	cmp	r3, #255	; 0xff
 80013a4:	bf0c      	ite	eq
 80013a6:	2004      	moveq	r0, #4
 80013a8:	2003      	movne	r0, #3
 80013aa:	b003      	add	sp, #12
 80013ac:	f85d fb04 	ldr.w	pc, [sp], #4
 80013b0:	2004      	movs	r0, #4
 80013b2:	e7fa      	b.n	80013aa <SD_readSector+0x1e>

080013b4 <_writeSingleBlock>:
 80013b4:	b5f8      	push	{r3, r4, r5, r6, r7, lr}
 80013b6:	27ff      	movs	r7, #255	; 0xff
 80013b8:	4605      	mov	r5, r0
 80013ba:	7017      	strb	r7, [r2, #0]
 80013bc:	4638      	mov	r0, r7
 80013be:	460c      	mov	r4, r1
 80013c0:	4616      	mov	r6, r2
 80013c2:	f7ff fde9 	bl	8000f98 <SPI_transfer>
 80013c6:	2200      	movs	r2, #0
 80013c8:	2110      	movs	r1, #16
 80013ca:	481b      	ldr	r0, [pc, #108]	; (8001438 <_writeSingleBlock+0x84>)
 80013cc:	f001 fa20 	bl	8002810 <HAL_GPIO_WritePin>
 80013d0:	4638      	mov	r0, r7
 80013d2:	f7ff fde1 	bl	8000f98 <SPI_transfer>
 80013d6:	4629      	mov	r1, r5
 80013d8:	2200      	movs	r2, #0
 80013da:	2018      	movs	r0, #24
 80013dc:	f7ff fe14 	bl	8001008 <SD_command>
 80013e0:	f7ff fe2d 	bl	800103e <SD_readRes1>
 80013e4:	4605      	mov	r5, r0
 80013e6:	b9d0      	cbnz	r0, 800141e <_writeSingleBlock+0x6a>
 80013e8:	20fe      	movs	r0, #254	; 0xfe
 80013ea:	f7ff fdd5 	bl	8000f98 <SPI_transfer>
 80013ee:	1e67      	subs	r7, r4, #1
 80013f0:	f204 14ff 	addw	r4, r4, #511	; 0x1ff
 80013f4:	f817 0f01 	ldrb.w	r0, [r7, #1]!
 80013f8:	f7ff fdce 	bl	8000f98 <SPI_transfer>
 80013fc:	42bc      	cmp	r4, r7
 80013fe:	d1f9      	bne.n	80013f4 <_writeSingleBlock+0x40>
 8001400:	20ff      	movs	r0, #255	; 0xff
 8001402:	f7ff fdc9 	bl	8000f98 <SPI_transfer>
 8001406:	28ff      	cmp	r0, #255	; 0xff
 8001408:	d0fa      	beq.n	8001400 <_writeSingleBlock+0x4c>
 800140a:	f000 031f 	and.w	r3, r0, #31
 800140e:	2b05      	cmp	r3, #5
 8001410:	d105      	bne.n	800141e <_writeSingleBlock+0x6a>
 8001412:	7033      	strb	r3, [r6, #0]
 8001414:	20ff      	movs	r0, #255	; 0xff
 8001416:	f7ff fdbf 	bl	8000f98 <SPI_transfer>
 800141a:	2800      	cmp	r0, #0
 800141c:	d0fa      	beq.n	8001414 <_writeSingleBlock+0x60>
 800141e:	20ff      	movs	r0, #255	; 0xff
 8001420:	f7ff fdba 	bl	8000f98 <SPI_transfer>
 8001424:	2201      	movs	r2, #1
 8001426:	2110      	movs	r1, #16
 8001428:	4803      	ldr	r0, [pc, #12]	; (8001438 <_writeSingleBlock+0x84>)
 800142a:	f001 f9f1 	bl	8002810 <HAL_GPIO_WritePin>
 800142e:	20ff      	movs	r0, #255	; 0xff
 8001430:	f7ff fdb2 	bl	8000f98 <SPI_transfer>
 8001434:	4628      	mov	r0, r5
 8001436:	bdf8      	pop	{r3, r4, r5, r6, r7, pc}
 8001438:	40020000 	.word	0x40020000

0800143c <SD_writeSector>:
 800143c:	b507      	push	{r0, r1, r2, lr}
 800143e:	f10d 0207 	add.w	r2, sp, #7
 8001442:	f7ff ffb7 	bl	80013b4 <_writeSingleBlock>
 8001446:	b938      	cbnz	r0, 8001458 <SD_writeSector+0x1c>
 8001448:	f89d 0007 	ldrb.w	r0, [sp, #7]
 800144c:	2805      	cmp	r0, #5
 800144e:	bf18      	it	ne
 8001450:	2006      	movne	r0, #6
 8001452:	b003      	add	sp, #12
 8001454:	f85d fb04 	ldr.w	pc, [sp], #4
 8001458:	2006      	movs	r0, #6
 800145a:	e7fa      	b.n	8001452 <SD_writeSector+0x16>

0800145c <SD_readMultipleSecStart>:
 800145c:	b510      	push	{r4, lr}
 800145e:	4604      	mov	r4, r0
 8001460:	20ff      	movs	r0, #255	; 0xff
 8001462:	f7ff fd99 	bl	8000f98 <SPI_transfer>
 8001466:	2200      	movs	r2, #0
 8001468:	2110      	movs	r1, #16
 800146a:	4807      	ldr	r0, [pc, #28]	; (8001488 <SD_readMultipleSecStart+0x2c>)
 800146c:	f001 f9d0 	bl	8002810 <HAL_GPIO_WritePin>
 8001470:	20ff      	movs	r0, #255	; 0xff
 8001472:	f7ff fd91 	bl	8000f98 <SPI_transfer>
 8001476:	4621      	mov	r1, r4
 8001478:	2200      	movs	r2, #0
 800147a:	2012      	movs	r0, #18
 800147c:	f7ff fdc4 	bl	8001008 <SD_command>
 8001480:	e8bd 4010 	ldmia.w	sp!, {r4, lr}
 8001484:	f7ff bddb 	b.w	800103e <SD_readRes1>
 8001488:	40020000 	.word	0x40020000

0800148c <SD_readMultipleSec>:
 800148c:	b538      	push	{r3, r4, r5, lr}
 800148e:	4604      	mov	r4, r0
 8001490:	f241 1595 	movw	r5, #4501	; 0x1195
 8001494:	20ff      	movs	r0, #255	; 0xff
 8001496:	f7ff fd7f 	bl	8000f98 <SPI_transfer>
 800149a:	28fe      	cmp	r0, #254	; 0xfe
 800149c:	d111      	bne.n	80014c2 <SD_readMultipleSec+0x36>
 800149e:	1e65      	subs	r5, r4, #1
 80014a0:	f204 14ff 	addw	r4, r4, #511	; 0x1ff
 80014a4:	20ff      	movs	r0, #255	; 0xff
 80014a6:	f7ff fd77 	bl	8000f98 <SPI_transfer>
 80014aa:	f805 0f01 	strb.w	r0, [r5, #1]!
 80014ae:	42ac      	cmp	r4, r5
 80014b0:	d1f8      	bne.n	80014a4 <SD_readMultipleSec+0x18>
 80014b2:	20ff      	movs	r0, #255	; 0xff
 80014b4:	f7ff fd70 	bl	8000f98 <SPI_transfer>
 80014b8:	20ff      	movs	r0, #255	; 0xff
 80014ba:	f7ff fd6d 	bl	8000f98 <SPI_transfer>
 80014be:	2003      	movs	r0, #3
 80014c0:	bd38      	pop	{r3, r4, r5, pc}
 80014c2:	3d01      	subs	r5, #1
 80014c4:	d1e6      	bne.n	8001494 <SD_readMultipleSec+0x8>
 80014c6:	f010 0ff0 	tst.w	r0, #240	; 0xf0
 80014ca:	d004      	beq.n	80014d6 <SD_readMultipleSec+0x4a>
 80014cc:	28ff      	cmp	r0, #255	; 0xff
 80014ce:	bf0c      	ite	eq
 80014d0:	2004      	moveq	r0, #4
 80014d2:	2003      	movne	r0, #3
 80014d4:	e7f4      	b.n	80014c0 <SD_readMultipleSec+0x34>
 80014d6:	2004      	movs	r0, #4
 80014d8:	e7f2      	b.n	80014c0 <SD_readMultipleSec+0x34>
	...

080014dc <SD_readMultipleSecStop>:
 80014dc:	2200      	movs	r2, #0
 80014de:	b508      	push	{r3, lr}
 80014e0:	4611      	mov	r1, r2
 80014e2:	200c      	movs	r0, #12
 80014e4:	f7ff fd90 	bl	8001008 <SD_command>
 80014e8:	20ff      	movs	r0, #255	; 0xff
 80014ea:	f7ff fd55 	bl	8000f98 <SPI_transfer>
 80014ee:	2800      	cmp	r0, #0
 80014f0:	d0fa      	beq.n	80014e8 <SD_readMultipleSecStop+0xc>
 80014f2:	20ff      	movs	r0, #255	; 0xff
 80014f4:	f7ff fd50 	bl	8000f98 <SPI_transfer>
 80014f8:	4804      	ldr	r0, [pc, #16]	; (800150c <SD_readMultipleSecStop+0x30>)
 80014fa:	2201      	movs	r2, #1
 80014fc:	2110      	movs	r1, #16
 80014fe:	f001 f987 	bl	8002810 <HAL_GPIO_WritePin>
 8001502:	e8bd 4008 	ldmia.w	sp!, {r3, lr}
 8001506:	20ff      	movs	r0, #255	; 0xff
 8001508:	f7ff bd46 	b.w	8000f98 <SPI_transfer>
 800150c:	40020000 	.word	0x40020000

08001510 <disable_peripheral_clock>:
 8001510:	b508      	push	{r3, lr}
 8001512:	f001 fbff 	bl	8002d14 <HAL_RCC_DeInit>
 8001516:	e8bd 4008 	ldmia.w	sp!, {r3, lr}
 800151a:	f000 be1f 	b.w	800215c <HAL_DeInit>

0800151e <bootloader_init>:
 800151e:	f000 bdb9 	b.w	8002094 <mySdFat_init>
	...

08001524 <update_available>:
 8001524:	b570      	push	{r4, r5, r6, lr}
 8001526:	b08c      	sub	sp, #48	; 0x30
 8001528:	4668      	mov	r0, sp
 800152a:	490b      	ldr	r1, [pc, #44]	; (8001558 <update_available+0x34>)
 800152c:	4e0b      	ldr	r6, [pc, #44]	; (800155c <update_available+0x38>)
 800152e:	466c      	mov	r4, sp
 8001530:	f000 fc68 	bl	8001e04 <pathExists>
 8001534:	cc0f      	ldmia	r4!, {r0, r1, r2, r3}
 8001536:	4635      	mov	r5, r6
 8001538:	c50f      	stmia	r5!, {r0, r1, r2, r3}
 800153a:	cc0f      	ldmia	r4!, {r0, r1, r2, r3}
 800153c:	c50f      	stmia	r5!, {r0, r1, r2, r3}
 800153e:	e894 0007 	ldmia.w	r4, {r0, r1, r2}
 8001542:	e885 0007 	stmia.w	r5, {r0, r1, r2}
 8001546:	4630      	mov	r0, r6
 8001548:	f000 fa30 	bl	80019ac <startCluster>
 800154c:	3800      	subs	r0, #0
 800154e:	bf18      	it	ne
 8001550:	2001      	movne	r0, #1
 8001552:	b00c      	add	sp, #48	; 0x30
 8001554:	bd70      	pop	{r4, r5, r6, pc}
 8001556:	bf00      	nop
 8001558:	080032a4 	.word	0x080032a4
 800155c:	20000088 	.word	0x20000088

08001560 <flash_process>:
 8001560:	e92d 4ff0 	stmdb	sp!, {r4, r5, r6, r7, r8, r9, sl, fp, lr}
 8001564:	b08f      	sub	sp, #60	; 0x3c
 8001566:	f000 ff55 	bl	8002414 <HAL_FLASH_Unlock>
 800156a:	4606      	mov	r6, r0
 800156c:	2800      	cmp	r0, #0
 800156e:	f040 8190 	bne.w	8001892 <flash_process+0x332>
 8001572:	f8df 92e0 	ldr.w	r9, [pc, #736]	; 8001854 <flash_process+0x2f4>
 8001576:	4fb4      	ldr	r7, [pc, #720]	; (8001848 <flash_process+0x2e8>)
 8001578:	4db4      	ldr	r5, [pc, #720]	; (800184c <flash_process+0x2ec>)
 800157a:	222b      	movs	r2, #43	; 0x2b
 800157c:	2100      	movs	r1, #0
 800157e:	4648      	mov	r0, r9
 8001580:	f001 fe41 	bl	8003206 <memset>
 8001584:	2400      	movs	r4, #0
 8001586:	4638      	mov	r0, r7
 8001588:	f000 fcac 	bl	8001ee4 <readByte>
 800158c:	682b      	ldr	r3, [r5, #0]
 800158e:	280d      	cmp	r0, #13
 8001590:	f103 0301 	add.w	r3, r3, #1
 8001594:	602b      	str	r3, [r5, #0]
 8001596:	f000 8182 	beq.w	800189e <flash_process+0x33e>
 800159a:	280a      	cmp	r0, #10
 800159c:	d00c      	beq.n	80015b8 <flash_process+0x58>
 800159e:	f809 0004 	strb.w	r0, [r9, r4]
 80015a2:	4638      	mov	r0, r7
 80015a4:	f000 fa18 	bl	80019d8 <fileSize>
 80015a8:	682b      	ldr	r3, [r5, #0]
 80015aa:	f104 0801 	add.w	r8, r4, #1
 80015ae:	fa5f f888 	uxtb.w	r8, r8
 80015b2:	4298      	cmp	r0, r3
 80015b4:	4644      	mov	r4, r8
 80015b6:	d1e6      	bne.n	8001586 <flash_process+0x26>
 80015b8:	48a5      	ldr	r0, [pc, #660]	; (8001850 <flash_process+0x2f0>)
 80015ba:	4da6      	ldr	r5, [pc, #664]	; (8001854 <flash_process+0x2f4>)
 80015bc:	2215      	movs	r2, #21
 80015be:	2100      	movs	r1, #0
 80015c0:	f001 fe21 	bl	8003206 <memset>
 80015c4:	48a2      	ldr	r0, [pc, #648]	; (8001850 <flash_process+0x2f0>)
 80015c6:	2701      	movs	r7, #1
 80015c8:	4684      	mov	ip, r0
 80015ca:	4682      	mov	sl, r0
 80015cc:	b2fa      	uxtb	r2, r7
 80015ce:	4294      	cmp	r4, r2
 80015d0:	d844      	bhi.n	800165c <flash_process+0xfc>
 80015d2:	f3c4 0447 	ubfx	r4, r4, #1, #8
 80015d6:	2500      	movs	r5, #0
 80015d8:	462a      	mov	r2, r5
 80015da:	3c01      	subs	r4, #1
 80015dc:	42a2      	cmp	r2, r4
 80015de:	db5b      	blt.n	8001698 <flash_process+0x138>
 80015e0:	2215      	movs	r2, #21
 80015e2:	2100      	movs	r1, #0
 80015e4:	a808      	add	r0, sp, #32
 80015e6:	f001 fe0e 	bl	8003206 <memset>
 80015ea:	f8ba 2001 	ldrh.w	r2, [sl, #1]
 80015ee:	f89a 7000 	ldrb.w	r7, [sl]
 80015f2:	f89a 8003 	ldrb.w	r8, [sl, #3]
 80015f6:	4998      	ldr	r1, [pc, #608]	; (8001858 <flash_process+0x2f8>)
 80015f8:	f88d 7020 	strb.w	r7, [sp, #32]
 80015fc:	ba52      	rev16	r2, r2
 80015fe:	f8ad 2022 	strh.w	r2, [sp, #34]	; 0x22
 8001602:	fa1f fb82 	uxth.w	fp, r2
 8001606:	f10d 0025 	add.w	r0, sp, #37	; 0x25
 800160a:	463a      	mov	r2, r7
 800160c:	f88d 8024 	strb.w	r8, [sp, #36]	; 0x24
 8001610:	f001 fe26 	bl	8003260 <memcpy>
 8001614:	f81a e004 	ldrb.w	lr, [sl, r4]
 8001618:	f88d e035 	strb.w	lr, [sp, #53]	; 0x35
 800161c:	f10d 0c20 	add.w	ip, sp, #32
 8001620:	e8bc 000f 	ldmia.w	ip!, {r0, r1, r2, r3}
 8001624:	ac02      	add	r4, sp, #8
 8001626:	c40f      	stmia	r4!, {r0, r1, r2, r3}
 8001628:	e89c 0003 	ldmia.w	ip, {r0, r1}
 800162c:	426d      	negs	r5, r5
 800162e:	f844 0b04 	str.w	r0, [r4], #4
 8001632:	b2ed      	uxtb	r5, r5
 8001634:	45ae      	cmp	lr, r5
 8001636:	8021      	strh	r1, [r4, #0]
 8001638:	f040 812f 	bne.w	800189a <flash_process+0x33a>
 800163c:	f1b8 0f04 	cmp.w	r8, #4
 8001640:	d899      	bhi.n	8001576 <flash_process+0x16>
 8001642:	a301      	add	r3, pc, #4	; (adr r3, 8001648 <flash_process+0xe8>)
 8001644:	f853 f028 	ldr.w	pc, [r3, r8, lsl #2]
 8001648:	080016bf 	.word	0x080016bf
 800164c:	08001881 	.word	0x08001881
 8001650:	080016b3 	.word	0x080016b3
 8001654:	08001577 	.word	0x08001577
 8001658:	080016a5 	.word	0x080016a5
 800165c:	786a      	ldrb	r2, [r5, #1]
 800165e:	f1a2 0141 	sub.w	r1, r2, #65	; 0x41
 8001662:	2905      	cmp	r1, #5
 8001664:	78a9      	ldrb	r1, [r5, #2]
 8001666:	bf96      	itet	ls
 8001668:	3a37      	subls	r2, #55	; 0x37
 800166a:	0112      	lslhi	r2, r2, #4
 800166c:	0112      	lslls	r2, r2, #4
 800166e:	f1a1 0e41 	sub.w	lr, r1, #65	; 0x41
 8001672:	bf8c      	ite	hi
 8001674:	f002 02f0 	andhi.w	r2, r2, #240	; 0xf0
 8001678:	b2d2      	uxtbls	r2, r2
 800167a:	f1be 0f05 	cmp.w	lr, #5
 800167e:	bf8d      	iteet	hi
 8001680:	3930      	subhi	r1, #48	; 0x30
 8001682:	3937      	subls	r1, #55	; 0x37
 8001684:	430a      	orrls	r2, r1
 8001686:	4311      	orrhi	r1, r2
 8001688:	bf8c      	ite	hi
 800168a:	b2ca      	uxtbhi	r2, r1
 800168c:	b2d2      	uxtbls	r2, r2
 800168e:	f80c 2b01 	strb.w	r2, [ip], #1
 8001692:	3702      	adds	r7, #2
 8001694:	3502      	adds	r5, #2
 8001696:	e799      	b.n	80015cc <flash_process+0x6c>
 8001698:	f810 1b01 	ldrb.w	r1, [r0], #1
 800169c:	4429      	add	r1, r5
 800169e:	b2cd      	uxtb	r5, r1
 80016a0:	3201      	adds	r2, #1
 80016a2:	e79b      	b.n	80015dc <flash_process+0x7c>
 80016a4:	f8bd 300d 	ldrh.w	r3, [sp, #13]
 80016a8:	ba5b      	rev16	r3, r3
 80016aa:	041b      	lsls	r3, r3, #16
 80016ac:	4a6b      	ldr	r2, [pc, #428]	; (800185c <flash_process+0x2fc>)
 80016ae:	6013      	str	r3, [r2, #0]
 80016b0:	e761      	b.n	8001576 <flash_process+0x16>
 80016b2:	f8bd 300d 	ldrh.w	r3, [sp, #13]
 80016b6:	ba5b      	rev16	r3, r3
 80016b8:	b29b      	uxth	r3, r3
 80016ba:	011b      	lsls	r3, r3, #4
 80016bc:	e7f6      	b.n	80016ac <flash_process+0x14c>
 80016be:	4b67      	ldr	r3, [pc, #412]	; (800185c <flash_process+0x2fc>)
 80016c0:	f8df 819c 	ldr.w	r8, [pc, #412]	; 8001860 <flash_process+0x300>
 80016c4:	681d      	ldr	r5, [r3, #0]
 80016c6:	f898 4000 	ldrb.w	r4, [r8]
 80016ca:	445d      	add	r5, fp
 80016cc:	2c00      	cmp	r4, #0
 80016ce:	d14d      	bne.n	800176c <flash_process+0x20c>
 80016d0:	485d      	ldr	r0, [pc, #372]	; (8001848 <flash_process+0x2e8>)
 80016d2:	f000 f981 	bl	80019d8 <fileSize>
 80016d6:	f7fe fec9 	bl	800046c <__aeabi_ui2d>
 80016da:	a359      	add	r3, pc, #356	; (adr r3, 8001840 <flash_process+0x2e0>)
 80016dc:	e9d3 2300 	ldrd	r2, r3, [r3]
 80016e0:	f7ff f868 	bl	80007b4 <__aeabi_ddiv>
 80016e4:	f7ff f94e 	bl	8000984 <__aeabi_d2uiz>
 80016e8:	f105 4378 	add.w	r3, r5, #4160749568	; 0xf8000000
 80016ec:	f5b3 4f80 	cmp.w	r3, #16384	; 0x4000
 80016f0:	d31d      	bcc.n	800172e <flash_process+0x1ce>
 80016f2:	f5a3 4280 	sub.w	r2, r3, #16384	; 0x4000
 80016f6:	f5b2 4f80 	cmp.w	r2, #16384	; 0x4000
 80016fa:	d323      	bcc.n	8001744 <flash_process+0x1e4>
 80016fc:	f5a3 4200 	sub.w	r2, r3, #32768	; 0x8000
 8001700:	f5b2 4f80 	cmp.w	r2, #16384	; 0x4000
 8001704:	d320      	bcc.n	8001748 <flash_process+0x1e8>
 8001706:	f5a3 4340 	sub.w	r3, r3, #49152	; 0xc000
 800170a:	f5b3 4f80 	cmp.w	r3, #16384	; 0x4000
 800170e:	d31d      	bcc.n	800174c <flash_process+0x1ec>
 8001710:	f105 4377 	add.w	r3, r5, #4143972352	; 0xf7000000
 8001714:	f503 027f 	add.w	r2, r3, #16711680	; 0xff0000
 8001718:	f5b2 3f80 	cmp.w	r2, #65536	; 0x10000
 800171c:	d318      	bcc.n	8001750 <flash_process+0x1f0>
 800171e:	f503 037e 	add.w	r3, r3, #16646144	; 0xfe0000
 8001722:	f5b3 3f00 	cmp.w	r3, #131072	; 0x20000
 8001726:	bf2c      	ite	cs
 8001728:	f04f 34ff 	movcs.w	r4, #4294967295	; 0xffffffff
 800172c:	2405      	movcc	r4, #5
 800172e:	2300      	movs	r3, #0
 8001730:	b2e4      	uxtb	r4, r4
 8001732:	9308      	str	r3, [sp, #32]
 8001734:	940a      	str	r4, [sp, #40]	; 0x28
 8001736:	2c05      	cmp	r4, #5
 8001738:	d80c      	bhi.n	8001754 <flash_process+0x1f4>
 800173a:	e8df f004 	tbb	[pc, r4]
 800173e:	482b      	.short	0x482b
 8001740:	9f937260 	.word	0x9f937260
 8001744:	2401      	movs	r4, #1
 8001746:	e7f2      	b.n	800172e <flash_process+0x1ce>
 8001748:	2402      	movs	r4, #2
 800174a:	e7f0      	b.n	800172e <flash_process+0x1ce>
 800174c:	2403      	movs	r4, #3
 800174e:	e7ee      	b.n	800172e <flash_process+0x1ce>
 8001750:	2404      	movs	r4, #4
 8001752:	e7ec      	b.n	800172e <flash_process+0x1ce>
 8001754:	23ff      	movs	r3, #255	; 0xff
 8001756:	930b      	str	r3, [sp, #44]	; 0x2c
 8001758:	a901      	add	r1, sp, #4
 800175a:	2302      	movs	r3, #2
 800175c:	a808      	add	r0, sp, #32
 800175e:	930c      	str	r3, [sp, #48]	; 0x30
 8001760:	f000 ff3e 	bl	80025e0 <HAL_FLASHEx_Erase>
 8001764:	b9a0      	cbnz	r0, 8001790 <flash_process+0x230>
 8001766:	2301      	movs	r3, #1
 8001768:	f888 3000 	strb.w	r3, [r8]
 800176c:	2400      	movs	r4, #0
 800176e:	b2e3      	uxtb	r3, r4
 8001770:	42bb      	cmp	r3, r7
 8001772:	eb04 0105 	add.w	r1, r4, r5
 8001776:	f4bf aefe 	bcs.w	8001576 <flash_process+0x16>
 800177a:	3338      	adds	r3, #56	; 0x38
 800177c:	446b      	add	r3, sp
 800177e:	2002      	movs	r0, #2
 8001780:	f853 2c2b 	ldr.w	r2, [r3, #-43]
 8001784:	2300      	movs	r3, #0
 8001786:	f000 fe89 	bl	800249c <HAL_FLASH_Program>
 800178a:	3404      	adds	r4, #4
 800178c:	2800      	cmp	r0, #0
 800178e:	d0ee      	beq.n	800176e <flash_process+0x20e>
 8001790:	4606      	mov	r6, r0
 8001792:	e07e      	b.n	8001892 <flash_process+0x332>
 8001794:	f5b0 4f80 	cmp.w	r0, #16384	; 0x4000
 8001798:	d970      	bls.n	800187c <flash_process+0x31c>
 800179a:	f5a0 4380 	sub.w	r3, r0, #16384	; 0x4000
 800179e:	3b01      	subs	r3, #1
 80017a0:	f5b3 4f80 	cmp.w	r3, #16384	; 0x4000
 80017a4:	d368      	bcc.n	8001878 <flash_process+0x318>
 80017a6:	f5a0 4300 	sub.w	r3, r0, #32768	; 0x8000
 80017aa:	3b01      	subs	r3, #1
 80017ac:	f5b3 4f80 	cmp.w	r3, #16384	; 0x4000
 80017b0:	d360      	bcc.n	8001874 <flash_process+0x314>
 80017b2:	f5a0 4340 	sub.w	r3, r0, #49152	; 0xc000
 80017b6:	3b01      	subs	r3, #1
 80017b8:	f5b3 4f80 	cmp.w	r3, #16384	; 0x4000
 80017bc:	d358      	bcc.n	8001870 <flash_process+0x310>
 80017be:	f1a0 1001 	sub.w	r0, r0, #65537	; 0x10001
 80017c2:	f5b0 3f80 	cmp.w	r0, #65536	; 0x10000
 80017c6:	bf34      	ite	cc
 80017c8:	2305      	movcc	r3, #5
 80017ca:	2306      	movcs	r3, #6
 80017cc:	e7c3      	b.n	8001756 <flash_process+0x1f6>
 80017ce:	f5b0 4f80 	cmp.w	r0, #16384	; 0x4000
 80017d2:	d953      	bls.n	800187c <flash_process+0x31c>
 80017d4:	f5a0 4380 	sub.w	r3, r0, #16384	; 0x4000
 80017d8:	3b01      	subs	r3, #1
 80017da:	f5b3 4f80 	cmp.w	r3, #16384	; 0x4000
 80017de:	d34b      	bcc.n	8001878 <flash_process+0x318>
 80017e0:	f5a0 4300 	sub.w	r3, r0, #32768	; 0x8000
 80017e4:	3b01      	subs	r3, #1
 80017e6:	f5b3 4f80 	cmp.w	r3, #16384	; 0x4000
 80017ea:	d343      	bcc.n	8001874 <flash_process+0x314>
 80017ec:	f5a0 4040 	sub.w	r0, r0, #49152	; 0xc000
 80017f0:	3801      	subs	r0, #1
 80017f2:	f5b0 3f80 	cmp.w	r0, #65536	; 0x10000
 80017f6:	bf34      	ite	cc
 80017f8:	2304      	movcc	r3, #4
 80017fa:	2305      	movcs	r3, #5
 80017fc:	e7ab      	b.n	8001756 <flash_process+0x1f6>
 80017fe:	f5b0 4f80 	cmp.w	r0, #16384	; 0x4000
 8001802:	d93b      	bls.n	800187c <flash_process+0x31c>
 8001804:	f5a0 4380 	sub.w	r3, r0, #16384	; 0x4000
 8001808:	3b01      	subs	r3, #1
 800180a:	f5b3 4f80 	cmp.w	r3, #16384	; 0x4000
 800180e:	d333      	bcc.n	8001878 <flash_process+0x318>
 8001810:	f5a0 4000 	sub.w	r0, r0, #32768	; 0x8000
 8001814:	3801      	subs	r0, #1
 8001816:	f5b0 3f80 	cmp.w	r0, #65536	; 0x10000
 800181a:	bf2c      	ite	cs
 800181c:	2304      	movcs	r3, #4
 800181e:	2303      	movcc	r3, #3
 8001820:	e799      	b.n	8001756 <flash_process+0x1f6>
 8001822:	f5b0 4f80 	cmp.w	r0, #16384	; 0x4000
 8001826:	d929      	bls.n	800187c <flash_process+0x31c>
 8001828:	f5a0 4080 	sub.w	r0, r0, #16384	; 0x4000
 800182c:	3801      	subs	r0, #1
 800182e:	f5b0 3f80 	cmp.w	r0, #65536	; 0x10000
 8001832:	bf2c      	ite	cs
 8001834:	2303      	movcs	r3, #3
 8001836:	2302      	movcc	r3, #2
 8001838:	e78d      	b.n	8001756 <flash_process+0x1f6>
 800183a:	bf00      	nop
 800183c:	f3af 8000 	nop.w
 8001840:	66666666 	.word	0x66666666
 8001844:	40066666 	.word	0x40066666
 8001848:	20000088 	.word	0x20000088
 800184c:	200000b4 	.word	0x200000b4
 8001850:	200000e4 	.word	0x200000e4
 8001854:	200000b9 	.word	0x200000b9
 8001858:	200000e8 	.word	0x200000e8
 800185c:	200000fc 	.word	0x200000fc
 8001860:	200000b8 	.word	0x200000b8
 8001864:	f5b0 3f80 	cmp.w	r0, #65536	; 0x10000
 8001868:	bf8c      	ite	hi
 800186a:	2302      	movhi	r3, #2
 800186c:	2301      	movls	r3, #1
 800186e:	e772      	b.n	8001756 <flash_process+0x1f6>
 8001870:	2304      	movs	r3, #4
 8001872:	e770      	b.n	8001756 <flash_process+0x1f6>
 8001874:	2303      	movs	r3, #3
 8001876:	e76e      	b.n	8001756 <flash_process+0x1f6>
 8001878:	2302      	movs	r3, #2
 800187a:	e76c      	b.n	8001756 <flash_process+0x1f6>
 800187c:	2301      	movs	r3, #1
 800187e:	e76a      	b.n	8001756 <flash_process+0x1f6>
 8001880:	f000 fdda 	bl	8002438 <HAL_FLASH_Lock>
 8001884:	4808      	ldr	r0, [pc, #32]	; (80018a8 <flash_process+0x348>)
 8001886:	f000 fb18 	bl	8001eba <fileClose>
 800188a:	4908      	ldr	r1, [pc, #32]	; (80018ac <flash_process+0x34c>)
 800188c:	4808      	ldr	r0, [pc, #32]	; (80018b0 <flash_process+0x350>)
 800188e:	f000 fb8b 	bl	8001fa8 <fileDelete>
 8001892:	4630      	mov	r0, r6
 8001894:	b00f      	add	sp, #60	; 0x3c
 8001896:	e8bd 8ff0 	ldmia.w	sp!, {r4, r5, r6, r7, r8, r9, sl, fp, pc}
 800189a:	2001      	movs	r0, #1
 800189c:	e778      	b.n	8001790 <flash_process+0x230>
 800189e:	4802      	ldr	r0, [pc, #8]	; (80018a8 <flash_process+0x348>)
 80018a0:	f000 fb20 	bl	8001ee4 <readByte>
 80018a4:	e688      	b.n	80015b8 <flash_process+0x58>
 80018a6:	bf00      	nop
 80018a8:	20000088 	.word	0x20000088
 80018ac:	080032b0 	.word	0x080032b0
 80018b0:	080032b8 	.word	0x080032b8

080018b4 <startSecOfClus>:
 80018b4:	4b03      	ldr	r3, [pc, #12]	; (80018c4 <startSecOfClus+0x10>)
 80018b6:	789a      	ldrb	r2, [r3, #2]
 80018b8:	4b03      	ldr	r3, [pc, #12]	; (80018c8 <startSecOfClus+0x14>)
 80018ba:	681b      	ldr	r3, [r3, #0]
 80018bc:	3802      	subs	r0, #2
 80018be:	fb02 3000 	mla	r0, r2, r0, r3
 80018c2:	4770      	bx	lr
 80018c4:	2000039c 	.word	0x2000039c
 80018c8:	20000104 	.word	0x20000104

080018cc <fileNameLength>:
 80018cc:	b510      	push	{r4, lr}
 80018ce:	4604      	mov	r4, r0
 80018d0:	f7fe fc82 	bl	80001d8 <strlen>
 80018d4:	2200      	movs	r2, #0
 80018d6:	b2d3      	uxtb	r3, r2
 80018d8:	4298      	cmp	r0, r3
 80018da:	d904      	bls.n	80018e6 <fileNameLength+0x1a>
 80018dc:	5ce1      	ldrb	r1, [r4, r3]
 80018de:	292e      	cmp	r1, #46	; 0x2e
 80018e0:	f102 0201 	add.w	r2, r2, #1
 80018e4:	d1f7      	bne.n	80018d6 <fileNameLength+0xa>
 80018e6:	4618      	mov	r0, r3
 80018e8:	bd10      	pop	{r4, pc}

080018ea <allLowerCase>:
 80018ea:	b538      	push	{r3, r4, r5, lr}
 80018ec:	4604      	mov	r4, r0
 80018ee:	2500      	movs	r5, #0
 80018f0:	4620      	mov	r0, r4
 80018f2:	f7ff ffeb 	bl	80018cc <fileNameLength>
 80018f6:	b2eb      	uxtb	r3, r5
 80018f8:	4298      	cmp	r0, r3
 80018fa:	d801      	bhi.n	8001900 <allLowerCase+0x16>
 80018fc:	2001      	movs	r0, #1
 80018fe:	bd38      	pop	{r3, r4, r5, pc}
 8001900:	5ce3      	ldrb	r3, [r4, r3]
 8001902:	3b41      	subs	r3, #65	; 0x41
 8001904:	2b19      	cmp	r3, #25
 8001906:	f105 0501 	add.w	r5, r5, #1
 800190a:	d8f1      	bhi.n	80018f0 <allLowerCase+0x6>
 800190c:	2000      	movs	r0, #0
 800190e:	e7f6      	b.n	80018fe <allLowerCase+0x14>

08001910 <fatSetNextClus>:
 8001910:	b570      	push	{r4, r5, r6, lr}
 8001912:	460e      	mov	r6, r1
 8001914:	490a      	ldr	r1, [pc, #40]	; (8001940 <fatSetNextClus+0x30>)
 8001916:	4b0b      	ldr	r3, [pc, #44]	; (8001944 <fatSetNextClus+0x34>)
 8001918:	680d      	ldr	r5, [r1, #0]
 800191a:	881a      	ldrh	r2, [r3, #0]
 800191c:	490a      	ldr	r1, [pc, #40]	; (8001948 <fatSetNextClus+0x38>)
 800191e:	0080      	lsls	r0, r0, #2
 8001920:	fbb0 f3f2 	udiv	r3, r0, r2
 8001924:	441d      	add	r5, r3
 8001926:	fb02 0413 	mls	r4, r2, r3, r0
 800192a:	4628      	mov	r0, r5
 800192c:	f7ff fd2e 	bl	800138c <SD_readSector>
 8001930:	4905      	ldr	r1, [pc, #20]	; (8001948 <fatSetNextClus+0x38>)
 8001932:	510e      	str	r6, [r1, r4]
 8001934:	4628      	mov	r0, r5
 8001936:	e8bd 4070 	ldmia.w	sp!, {r4, r5, r6, lr}
 800193a:	f7ff bd7f 	b.w	800143c <SD_writeSector>
 800193e:	bf00      	nop
 8001940:	2000010c 	.word	0x2000010c
 8001944:	2000039c 	.word	0x2000039c
 8001948:	20000118 	.word	0x20000118

0800194c <mixedLetters>:
 800194c:	b570      	push	{r4, r5, r6, lr}
 800194e:	4605      	mov	r5, r0
 8001950:	f7ff ffcb 	bl	80018ea <allLowerCase>
 8001954:	4604      	mov	r4, r0
 8001956:	b978      	cbnz	r0, 8001978 <mixedLetters+0x2c>
 8001958:	4606      	mov	r6, r0
 800195a:	4628      	mov	r0, r5
 800195c:	f7ff ffb6 	bl	80018cc <fileNameLength>
 8001960:	b2f3      	uxtb	r3, r6
 8001962:	4283      	cmp	r3, r0
 8001964:	d301      	bcc.n	800196a <mixedLetters+0x1e>
 8001966:	4620      	mov	r0, r4
 8001968:	bd70      	pop	{r4, r5, r6, pc}
 800196a:	5ceb      	ldrb	r3, [r5, r3]
 800196c:	2b60      	cmp	r3, #96	; 0x60
 800196e:	f106 0601 	add.w	r6, r6, #1
 8001972:	d9f2      	bls.n	800195a <mixedLetters+0xe>
 8001974:	2401      	movs	r4, #1
 8001976:	e7f6      	b.n	8001966 <mixedLetters+0x1a>
 8001978:	2400      	movs	r4, #0
 800197a:	e7f4      	b.n	8001966 <mixedLetters+0x1a>

0800197c <fatNextClus>:
 800197c:	b538      	push	{r3, r4, r5, lr}
 800197e:	4b08      	ldr	r3, [pc, #32]	; (80019a0 <fatNextClus+0x24>)
 8001980:	4d08      	ldr	r5, [pc, #32]	; (80019a4 <fatNextClus+0x28>)
 8001982:	881a      	ldrh	r2, [r3, #0]
 8001984:	0080      	lsls	r0, r0, #2
 8001986:	fbb0 f3f2 	udiv	r3, r0, r2
 800198a:	fb02 0413 	mls	r4, r2, r3, r0
 800198e:	4a06      	ldr	r2, [pc, #24]	; (80019a8 <fatNextClus+0x2c>)
 8001990:	6810      	ldr	r0, [r2, #0]
 8001992:	4629      	mov	r1, r5
 8001994:	4418      	add	r0, r3
 8001996:	f7ff fcf9 	bl	800138c <SD_readSector>
 800199a:	5928      	ldr	r0, [r5, r4]
 800199c:	bd38      	pop	{r3, r4, r5, pc}
 800199e:	bf00      	nop
 80019a0:	2000039c 	.word	0x2000039c
 80019a4:	20000118 	.word	0x20000118
 80019a8:	2000010c 	.word	0x2000010c

080019ac <startCluster>:
 80019ac:	8b43      	ldrh	r3, [r0, #26]
 80019ae:	8a80      	ldrh	r0, [r0, #20]
 80019b0:	ea43 4000 	orr.w	r0, r3, r0, lsl #16
 80019b4:	4770      	bx	lr
	...

080019b8 <isValidFile>:
 80019b8:	7800      	ldrb	r0, [r0, #0]
 80019ba:	b148      	cbz	r0, 80019d0 <isValidFile+0x18>
 80019bc:	4b05      	ldr	r3, [pc, #20]	; (80019d4 <isValidFile+0x1c>)
 80019be:	781a      	ldrb	r2, [r3, #0]
 80019c0:	2a2e      	cmp	r2, #46	; 0x2e
 80019c2:	d104      	bne.n	80019ce <isValidFile+0x16>
 80019c4:	7858      	ldrb	r0, [r3, #1]
 80019c6:	385f      	subs	r0, #95	; 0x5f
 80019c8:	bf18      	it	ne
 80019ca:	2001      	movne	r0, #1
 80019cc:	4770      	bx	lr
 80019ce:	2001      	movs	r0, #1
 80019d0:	4770      	bx	lr
 80019d2:	bf00      	nop
 80019d4:	20000318 	.word	0x20000318

080019d8 <fileSize>:
 80019d8:	69c0      	ldr	r0, [r0, #28]
 80019da:	4770      	bx	lr

080019dc <rootDir>:
 80019dc:	4b0e      	ldr	r3, [pc, #56]	; (8001a18 <rootDir+0x3c>)
 80019de:	490f      	ldr	r1, [pc, #60]	; (8001a1c <rootDir+0x40>)
 80019e0:	b570      	push	{r4, r5, r6, lr}
 80019e2:	4604      	mov	r4, r0
 80019e4:	6958      	ldr	r0, [r3, #20]
 80019e6:	f7ff ff65 	bl	80018b4 <startSecOfClus>
 80019ea:	f7ff fccf 	bl	800138c <SD_readSector>
 80019ee:	4b0b      	ldr	r3, [pc, #44]	; (8001a1c <rootDir+0x40>)
 80019f0:	4622      	mov	r2, r4
 80019f2:	f103 0628 	add.w	r6, r3, #40	; 0x28
 80019f6:	6818      	ldr	r0, [r3, #0]
 80019f8:	6859      	ldr	r1, [r3, #4]
 80019fa:	4615      	mov	r5, r2
 80019fc:	c503      	stmia	r5!, {r0, r1}
 80019fe:	3308      	adds	r3, #8
 8001a00:	42b3      	cmp	r3, r6
 8001a02:	462a      	mov	r2, r5
 8001a04:	d1f7      	bne.n	80019f6 <rootDir+0x1a>
 8001a06:	6818      	ldr	r0, [r3, #0]
 8001a08:	6028      	str	r0, [r5, #0]
 8001a0a:	2302      	movs	r3, #2
 8001a0c:	8363      	strh	r3, [r4, #26]
 8001a0e:	2301      	movs	r3, #1
 8001a10:	6223      	str	r3, [r4, #32]
 8001a12:	4620      	mov	r0, r4
 8001a14:	bd70      	pop	{r4, r5, r6, pc}
 8001a16:	bf00      	nop
 8001a18:	2000039c 	.word	0x2000039c
 8001a1c:	20000118 	.word	0x20000118

08001a20 <nextFile>:
 8001a20:	e92d 4ff0 	stmdb	sp!, {r4, r5, r6, r7, r8, r9, sl, fp, lr}
 8001a24:	ed2d 8b02 	vpush	{d8}
 8001a28:	4bc5      	ldr	r3, [pc, #788]	; (8001d40 <nextFile+0x320>)
 8001a2a:	b08f      	sub	sp, #60	; 0x3c
 8001a2c:	f893 9002 	ldrb.w	r9, [r3, #2]
 8001a30:	8b4d      	ldrh	r5, [r1, #26]
 8001a32:	8a8b      	ldrh	r3, [r1, #20]
 8001a34:	6a0c      	ldr	r4, [r1, #32]
 8001a36:	af00      	add	r7, sp, #0
 8001a38:	4680      	mov	r8, r0
 8001a3a:	460e      	mov	r6, r1
 8001a3c:	222c      	movs	r2, #44	; 0x2c
 8001a3e:	2100      	movs	r1, #0
 8001a40:	f107 000c 	add.w	r0, r7, #12
 8001a44:	ea45 4503 	orr.w	r5, r5, r3, lsl #16
 8001a48:	f001 fbdd 	bl	8003206 <memset>
 8001a4c:	f04f 0b00 	mov.w	fp, #0
 8001a50:	ea4f 1a09 	mov.w	sl, r9, lsl #4
 8001a54:	fbb4 fafa 	udiv	sl, r4, sl
 8001a58:	fa5f f38b 	uxtb.w	r3, fp
 8001a5c:	4553      	cmp	r3, sl
 8001a5e:	f0c0 80ab 	bcc.w	8001bb8 <nextFile+0x198>
 8001a62:	6a33      	ldr	r3, [r6, #32]
 8001a64:	2b02      	cmp	r3, #2
 8001a66:	bf9b      	ittet	ls
 8001a68:	8ab3      	ldrhls	r3, [r6, #20]
 8001a6a:	8b75      	ldrhls	r5, [r6, #26]
 8001a6c:	0924      	lsrhi	r4, r4, #4
 8001a6e:	ea45 4503 	orrls.w	r5, r5, r3, lsl #16
 8001a72:	bf84      	itt	hi
 8001a74:	fbb4 f3f9 	udivhi	r3, r4, r9
 8001a78:	fb09 4413 	mlshi	r4, r9, r3, r4
 8001a7c:	7af3      	ldrb	r3, [r6, #11]
 8001a7e:	bf8c      	ite	hi
 8001a80:	b2e4      	uxtbhi	r4, r4
 8001a82:	2400      	movls	r4, #0
 8001a84:	f013 0f18 	tst.w	r3, #24
 8001a88:	f000 80a2 	beq.w	8001bd0 <nextFile+0x1b0>
 8001a8c:	f8df a2b4 	ldr.w	sl, [pc, #692]	; 8001d44 <nextFile+0x324>
 8001a90:	f8df 92b8 	ldr.w	r9, [pc, #696]	; 8001d4c <nextFile+0x32c>
 8001a94:	49ab      	ldr	r1, [pc, #684]	; (8001d44 <nextFile+0x324>)
 8001a96:	4628      	mov	r0, r5
 8001a98:	f7ff ff0c 	bl	80018b4 <startSecOfClus>
 8001a9c:	4420      	add	r0, r4
 8001a9e:	f7ff fc75 	bl	800138c <SD_readSector>
 8001aa2:	f8d6 b020 	ldr.w	fp, [r6, #32]
 8001aa6:	f00b 0c0f 	and.w	ip, fp, #15
 8001aaa:	f107 030c 	add.w	r3, r7, #12
 8001aae:	eb0a 1c4c 	add.w	ip, sl, ip, lsl #5
 8001ab2:	469e      	mov	lr, r3
 8001ab4:	e8bc 000f 	ldmia.w	ip!, {r0, r1, r2, r3}
 8001ab8:	e8ae 000f 	stmia.w	lr!, {r0, r1, r2, r3}
 8001abc:	e8bc 000f 	ldmia.w	ip!, {r0, r1, r2, r3}
 8001ac0:	e8ae 000f 	stmia.w	lr!, {r0, r1, r2, r3}
 8001ac4:	e89c 0007 	ldmia.w	ip, {r0, r1, r2}
 8001ac8:	7b3b      	ldrb	r3, [r7, #12]
 8001aca:	2be5      	cmp	r3, #229	; 0xe5
 8001acc:	e88e 0007 	stmia.w	lr, {r0, r1, r2}
 8001ad0:	f000 8140 	beq.w	8001d54 <nextFile+0x334>
 8001ad4:	2b00      	cmp	r3, #0
 8001ad6:	d07b      	beq.n	8001bd0 <nextFile+0x1b0>
 8001ad8:	f897 9017 	ldrb.w	r9, [r7, #23]
 8001adc:	f009 023f 	and.w	r2, r9, #63	; 0x3f
 8001ae0:	2a0f      	cmp	r2, #15
 8001ae2:	f040 80dd 	bne.w	8001ca0 <nextFile+0x280>
 8001ae6:	f003 02f0 	and.w	r2, r3, #240	; 0xf0
 8001aea:	2a40      	cmp	r2, #64	; 0x40
 8001aec:	607b      	str	r3, [r7, #4]
 8001aee:	f040 80d7 	bne.w	8001ca0 <nextFile+0x280>
 8001af2:	2280      	movs	r2, #128	; 0x80
 8001af4:	4894      	ldr	r0, [pc, #592]	; (8001d48 <nextFile+0x328>)
 8001af6:	f8df b24c 	ldr.w	fp, [pc, #588]	; 8001d44 <nextFile+0x324>
 8001afa:	2100      	movs	r1, #0
 8001afc:	f001 fb83 	bl	8003206 <memset>
 8001b00:	687b      	ldr	r3, [r7, #4]
 8001b02:	f003 020f 	and.w	r2, r3, #15
 8001b06:	4613      	mov	r3, r2
 8001b08:	607a      	str	r2, [r7, #4]
 8001b0a:	eb02 0242 	add.w	r2, r2, r2, lsl #1
 8001b0e:	eb03 0382 	add.w	r3, r3, r2, lsl #2
 8001b12:	1dda      	adds	r2, r3, #7
 8001b14:	f402 727e 	and.w	r2, r2, #1016	; 0x3f8
 8001b18:	46e9      	mov	r9, sp
 8001b1a:	ebad 0d02 	sub.w	sp, sp, r2
 8001b1e:	466a      	mov	r2, sp
 8001b20:	ee08 2a10 	vmov	s16, r2
 8001b24:	446b      	add	r3, sp
 8001b26:	ee18 2a10 	vmov	r2, s16
 8001b2a:	4293      	cmp	r3, r2
 8001b2c:	d162      	bne.n	8001bf4 <nextFile+0x1d4>
 8001b2e:	f8df c220 	ldr.w	ip, [pc, #544]	; 8001d50 <nextFile+0x330>
 8001b32:	f8df e214 	ldr.w	lr, [pc, #532]	; 8001d48 <nextFile+0x328>
 8001b36:	f89c 0000 	ldrb.w	r0, [ip]
 8001b3a:	3b01      	subs	r3, #1
 8001b3c:	f813 2f01 	ldrb.w	r2, [r3, #1]!
 8001b40:	1c41      	adds	r1, r0, #1
 8001b42:	b2c9      	uxtb	r1, r1
 8001b44:	2a00      	cmp	r2, #0
 8001b46:	f040 80a7 	bne.w	8001c98 <nextFile+0x278>
 8001b4a:	f8d6 a020 	ldr.w	sl, [r6, #32]
 8001b4e:	4b7d      	ldr	r3, [pc, #500]	; (8001d44 <nextFile+0x324>)
 8001b50:	f88c 2000 	strb.w	r2, [ip]
 8001b54:	f00a 0b0f 	and.w	fp, sl, #15
 8001b58:	eb03 1c4b 	add.w	ip, r3, fp, lsl #5
 8001b5c:	e8bc 000f 	ldmia.w	ip!, {r0, r1, r2, r3}
 8001b60:	f107 0e0c 	add.w	lr, r7, #12
 8001b64:	e8ae 000f 	stmia.w	lr!, {r0, r1, r2, r3}
 8001b68:	e8bc 000f 	ldmia.w	ip!, {r0, r1, r2, r3}
 8001b6c:	e8ae 000f 	stmia.w	lr!, {r0, r1, r2, r3}
 8001b70:	e89c 0007 	ldmia.w	ip, {r0, r1, r2}
 8001b74:	687b      	ldr	r3, [r7, #4]
 8001b76:	e88e 0007 	stmia.w	lr, {r0, r1, r2}
 8001b7a:	f887 3036 	strb.w	r3, [r7, #54]	; 0x36
 8001b7e:	f10a 0301 	add.w	r3, sl, #1
 8001b82:	633d      	str	r5, [r7, #48]	; 0x30
 8001b84:	f887 4034 	strb.w	r4, [r7, #52]	; 0x34
 8001b88:	f887 b035 	strb.w	fp, [r7, #53]	; 0x35
 8001b8c:	6233      	str	r3, [r6, #32]
 8001b8e:	46cd      	mov	sp, r9
 8001b90:	7dfb      	ldrb	r3, [r7, #23]
 8001b92:	f013 0f18 	tst.w	r3, #24
 8001b96:	bf14      	ite	ne
 8001b98:	2301      	movne	r3, #1
 8001b9a:	2300      	moveq	r3, #0
 8001b9c:	005b      	lsls	r3, r3, #1
 8001b9e:	f107 050c 	add.w	r5, r7, #12
 8001ba2:	62fb      	str	r3, [r7, #44]	; 0x2c
 8001ba4:	cd0f      	ldmia	r5!, {r0, r1, r2, r3}
 8001ba6:	4644      	mov	r4, r8
 8001ba8:	c40f      	stmia	r4!, {r0, r1, r2, r3}
 8001baa:	cd0f      	ldmia	r5!, {r0, r1, r2, r3}
 8001bac:	c40f      	stmia	r4!, {r0, r1, r2, r3}
 8001bae:	e895 0007 	ldmia.w	r5, {r0, r1, r2}
 8001bb2:	e884 0007 	stmia.w	r4, {r0, r1, r2}
 8001bb6:	e016      	b.n	8001be6 <nextFile+0x1c6>
 8001bb8:	4628      	mov	r0, r5
 8001bba:	f7ff fedf 	bl	800197c <fatNextClus>
 8001bbe:	4a63      	ldr	r2, [pc, #396]	; (8001d4c <nextFile+0x32c>)
 8001bc0:	4290      	cmp	r0, r2
 8001bc2:	4605      	mov	r5, r0
 8001bc4:	f10b 0b01 	add.w	fp, fp, #1
 8001bc8:	f67f af46 	bls.w	8001a58 <nextFile+0x38>
 8001bcc:	2302      	movs	r3, #2
 8001bce:	6233      	str	r3, [r6, #32]
 8001bd0:	222c      	movs	r2, #44	; 0x2c
 8001bd2:	2100      	movs	r1, #0
 8001bd4:	f107 000c 	add.w	r0, r7, #12
 8001bd8:	f001 fb15 	bl	8003206 <memset>
 8001bdc:	222c      	movs	r2, #44	; 0x2c
 8001bde:	2100      	movs	r1, #0
 8001be0:	4640      	mov	r0, r8
 8001be2:	f001 fb10 	bl	8003206 <memset>
 8001be6:	4640      	mov	r0, r8
 8001be8:	373c      	adds	r7, #60	; 0x3c
 8001bea:	46bd      	mov	sp, r7
 8001bec:	ecbd 8b02 	vpop	{d8}
 8001bf0:	e8bd 8ff0 	ldmia.w	sp!, {r4, r5, r6, r7, r8, r9, sl, fp, pc}
 8001bf4:	f8d6 e020 	ldr.w	lr, [r6, #32]
 8001bf8:	f00e 020f 	and.w	r2, lr, #15
 8001bfc:	eb0b 1242 	add.w	r2, fp, r2, lsl #5
 8001c00:	4611      	mov	r1, r2
 8001c02:	f1a3 000e 	sub.w	r0, r3, #14
 8001c06:	f102 0c0a 	add.w	ip, r2, #10
 8001c0a:	f891 a001 	ldrb.w	sl, [r1, #1]
 8001c0e:	f800 af01 	strb.w	sl, [r0, #1]!
 8001c12:	3102      	adds	r1, #2
 8001c14:	458c      	cmp	ip, r1
 8001c16:	d1f8      	bne.n	8001c0a <nextFile+0x1ea>
 8001c18:	2105      	movs	r1, #5
 8001c1a:	f1a3 0a0d 	sub.w	sl, r3, #13
 8001c1e:	f102 0c04 	add.w	ip, r2, #4
 8001c22:	f81c 0011 	ldrb.w	r0, [ip, r1, lsl #1]
 8001c26:	f80a 0001 	strb.w	r0, [sl, r1]
 8001c2a:	3101      	adds	r1, #1
 8001c2c:	290b      	cmp	r1, #11
 8001c2e:	d1f8      	bne.n	8001c22 <nextFile+0x202>
 8001c30:	7f11      	ldrb	r1, [r2, #28]
 8001c32:	f803 1c02 	strb.w	r1, [r3, #-2]
 8001c36:	f10e 0101 	add.w	r1, lr, #1
 8001c3a:	7f92      	ldrb	r2, [r2, #30]
 8001c3c:	6231      	str	r1, [r6, #32]
 8001c3e:	f011 010f 	ands.w	r1, r1, #15
 8001c42:	f803 2c01 	strb.w	r2, [r3, #-1]
 8001c46:	d125      	bne.n	8001c94 <nextFile+0x274>
 8001c48:	4b3d      	ldr	r3, [pc, #244]	; (8001d40 <nextFile+0x320>)
 8001c4a:	3401      	adds	r4, #1
 8001c4c:	789b      	ldrb	r3, [r3, #2]
 8001c4e:	b2e4      	uxtb	r4, r4
 8001c50:	42a3      	cmp	r3, r4
 8001c52:	d118      	bne.n	8001c86 <nextFile+0x266>
 8001c54:	4628      	mov	r0, r5
 8001c56:	6039      	str	r1, [r7, #0]
 8001c58:	f7ff fe90 	bl	800197c <fatNextClus>
 8001c5c:	4b3b      	ldr	r3, [pc, #236]	; (8001d4c <nextFile+0x32c>)
 8001c5e:	6839      	ldr	r1, [r7, #0]
 8001c60:	4298      	cmp	r0, r3
 8001c62:	4605      	mov	r5, r0
 8001c64:	d90e      	bls.n	8001c84 <nextFile+0x264>
 8001c66:	2302      	movs	r3, #2
 8001c68:	6233      	str	r3, [r6, #32]
 8001c6a:	222c      	movs	r2, #44	; 0x2c
 8001c6c:	f107 000c 	add.w	r0, r7, #12
 8001c70:	6079      	str	r1, [r7, #4]
 8001c72:	f001 fac8 	bl	8003206 <memset>
 8001c76:	6879      	ldr	r1, [r7, #4]
 8001c78:	222c      	movs	r2, #44	; 0x2c
 8001c7a:	4640      	mov	r0, r8
 8001c7c:	f001 fac3 	bl	8003206 <memset>
 8001c80:	46cd      	mov	sp, r9
 8001c82:	e7b0      	b.n	8001be6 <nextFile+0x1c6>
 8001c84:	460c      	mov	r4, r1
 8001c86:	4628      	mov	r0, r5
 8001c88:	f7ff fe14 	bl	80018b4 <startSecOfClus>
 8001c8c:	4659      	mov	r1, fp
 8001c8e:	4420      	add	r0, r4
 8001c90:	f7ff fb7c 	bl	800138c <SD_readSector>
 8001c94:	4653      	mov	r3, sl
 8001c96:	e746      	b.n	8001b26 <nextFile+0x106>
 8001c98:	f80e 2000 	strb.w	r2, [lr, r0]
 8001c9c:	4608      	mov	r0, r1
 8001c9e:	e74d      	b.n	8001b3c <nextFile+0x11c>
 8001ca0:	2280      	movs	r2, #128	; 0x80
 8001ca2:	2100      	movs	r1, #0
 8001ca4:	4828      	ldr	r0, [pc, #160]	; (8001d48 <nextFile+0x328>)
 8001ca6:	f001 faae 	bl	8003206 <memset>
 8001caa:	f897 a018 	ldrb.w	sl, [r7, #24]
 8001cae:	f8df e098 	ldr.w	lr, [pc, #152]	; 8001d48 <nextFile+0x328>
 8001cb2:	f00a 0a08 	and.w	sl, sl, #8
 8001cb6:	f107 020c 	add.w	r2, r7, #12
 8001cba:	2100      	movs	r1, #0
 8001cbc:	4670      	mov	r0, lr
 8001cbe:	f812 3b01 	ldrb.w	r3, [r2], #1
 8001cc2:	2b20      	cmp	r3, #32
 8001cc4:	fa5f fc81 	uxtb.w	ip, r1
 8001cc8:	d00f      	beq.n	8001cea <nextFile+0x2ca>
 8001cca:	f1ba 0f00 	cmp.w	sl, #0
 8001cce:	d006      	beq.n	8001cde <nextFile+0x2be>
 8001cd0:	f1a3 0c41 	sub.w	ip, r3, #65	; 0x41
 8001cd4:	f1bc 0f19 	cmp.w	ip, #25
 8001cd8:	bf9c      	itt	ls
 8001cda:	3320      	addls	r3, #32
 8001cdc:	b2db      	uxtbls	r3, r3
 8001cde:	3101      	adds	r1, #1
 8001ce0:	2908      	cmp	r1, #8
 8001ce2:	f80e 3b01 	strb.w	r3, [lr], #1
 8001ce6:	d1ea      	bne.n	8001cbe <nextFile+0x29e>
 8001ce8:	468c      	mov	ip, r1
 8001cea:	f019 0f10 	tst.w	r9, #16
 8001cee:	d00d      	beq.n	8001d0c <nextFile+0x2ec>
 8001cf0:	6a33      	ldr	r3, [r6, #32]
 8001cf2:	633d      	str	r5, [r7, #48]	; 0x30
 8001cf4:	f003 020f 	and.w	r2, r3, #15
 8001cf8:	f887 2035 	strb.w	r2, [r7, #53]	; 0x35
 8001cfc:	3301      	adds	r3, #1
 8001cfe:	2200      	movs	r2, #0
 8001d00:	f887 4034 	strb.w	r4, [r7, #52]	; 0x34
 8001d04:	f887 2036 	strb.w	r2, [r7, #54]	; 0x36
 8001d08:	6233      	str	r3, [r6, #32]
 8001d0a:	e741      	b.n	8001b90 <nextFile+0x170>
 8001d0c:	7d3b      	ldrb	r3, [r7, #20]
 8001d0e:	2b20      	cmp	r3, #32
 8001d10:	d0ee      	beq.n	8001cf0 <nextFile+0x2d0>
 8001d12:	232e      	movs	r3, #46	; 0x2e
 8001d14:	f800 300c 	strb.w	r3, [r0, ip]
 8001d18:	f107 0e13 	add.w	lr, r7, #19
 8001d1c:	2201      	movs	r2, #1
 8001d1e:	f81e 3f01 	ldrb.w	r3, [lr, #1]!
 8001d22:	eb0c 0102 	add.w	r1, ip, r2
 8001d26:	2b20      	cmp	r3, #32
 8001d28:	bf18      	it	ne
 8001d2a:	3320      	addne	r3, #32
 8001d2c:	b2c9      	uxtb	r1, r1
 8001d2e:	f102 0201 	add.w	r2, r2, #1
 8001d32:	bf14      	ite	ne
 8001d34:	b2db      	uxtbne	r3, r3
 8001d36:	2300      	moveq	r3, #0
 8001d38:	2a04      	cmp	r2, #4
 8001d3a:	5443      	strb	r3, [r0, r1]
 8001d3c:	d1ef      	bne.n	8001d1e <nextFile+0x2fe>
 8001d3e:	e7d7      	b.n	8001cf0 <nextFile+0x2d0>
 8001d40:	2000039c 	.word	0x2000039c
 8001d44:	20000118 	.word	0x20000118
 8001d48:	20000318 	.word	0x20000318
 8001d4c:	0ffffff7 	.word	0x0ffffff7
 8001d50:	20000398 	.word	0x20000398
 8001d54:	f10b 0301 	add.w	r3, fp, #1
 8001d58:	6233      	str	r3, [r6, #32]
 8001d5a:	071b      	lsls	r3, r3, #28
 8001d5c:	4b09      	ldr	r3, [pc, #36]	; (8001d84 <nextFile+0x364>)
 8001d5e:	bf08      	it	eq
 8001d60:	3401      	addeq	r4, #1
 8001d62:	789b      	ldrb	r3, [r3, #2]
 8001d64:	bf08      	it	eq
 8001d66:	b2e4      	uxtbeq	r4, r4
 8001d68:	42a3      	cmp	r3, r4
 8001d6a:	f47f ae93 	bne.w	8001a94 <nextFile+0x74>
 8001d6e:	4628      	mov	r0, r5
 8001d70:	f7ff fe04 	bl	800197c <fatNextClus>
 8001d74:	4548      	cmp	r0, r9
 8001d76:	4605      	mov	r5, r0
 8001d78:	f04f 0400 	mov.w	r4, #0
 8001d7c:	f67f ae8a 	bls.w	8001a94 <nextFile+0x74>
 8001d80:	e724      	b.n	8001bcc <nextFile+0x1ac>
 8001d82:	bf00      	nop
 8001d84:	2000039c 	.word	0x2000039c

08001d88 <fileExists>:
 8001d88:	e92d 41f0 	stmdb	sp!, {r4, r5, r6, r7, r8, lr}
 8001d8c:	f8df 8070 	ldr.w	r8, [pc, #112]	; 8001e00 <fileExists+0x78>
 8001d90:	b08c      	sub	sp, #48	; 0x30
 8001d92:	4606      	mov	r6, r0
 8001d94:	460c      	mov	r4, r1
 8001d96:	4617      	mov	r7, r2
 8001d98:	a801      	add	r0, sp, #4
 8001d9a:	4639      	mov	r1, r7
 8001d9c:	f7ff fe40 	bl	8001a20 <nextFile>
 8001da0:	a801      	add	r0, sp, #4
 8001da2:	f7ff fe09 	bl	80019b8 <isValidFile>
 8001da6:	b310      	cbz	r0, 8001dee <fileExists+0x66>
 8001da8:	4620      	mov	r0, r4
 8001daa:	f7fe fa15 	bl	80001d8 <strlen>
 8001dae:	2200      	movs	r2, #0
 8001db0:	4605      	mov	r5, r0
 8001db2:	b2d3      	uxtb	r3, r2
 8001db4:	429d      	cmp	r5, r3
 8001db6:	d813      	bhi.n	8001de0 <fileExists+0x58>
 8001db8:	d119      	bne.n	8001dee <fileExists+0x66>
 8001dba:	4640      	mov	r0, r8
 8001dbc:	f7fe fa0c 	bl	80001d8 <strlen>
 8001dc0:	4285      	cmp	r5, r0
 8001dc2:	d114      	bne.n	8001dee <fileExists+0x66>
 8001dc4:	ac01      	add	r4, sp, #4
 8001dc6:	cc0f      	ldmia	r4!, {r0, r1, r2, r3}
 8001dc8:	4635      	mov	r5, r6
 8001dca:	c50f      	stmia	r5!, {r0, r1, r2, r3}
 8001dcc:	cc0f      	ldmia	r4!, {r0, r1, r2, r3}
 8001dce:	c50f      	stmia	r5!, {r0, r1, r2, r3}
 8001dd0:	e894 0007 	ldmia.w	r4, {r0, r1, r2}
 8001dd4:	e885 0007 	stmia.w	r5, {r0, r1, r2}
 8001dd8:	4630      	mov	r0, r6
 8001dda:	b00c      	add	sp, #48	; 0x30
 8001ddc:	e8bd 81f0 	ldmia.w	sp!, {r4, r5, r6, r7, r8, pc}
 8001de0:	f818 1003 	ldrb.w	r1, [r8, r3]
 8001de4:	5ce3      	ldrb	r3, [r4, r3]
 8001de6:	428b      	cmp	r3, r1
 8001de8:	f102 0201 	add.w	r2, r2, #1
 8001dec:	d0e1      	beq.n	8001db2 <fileExists+0x2a>
 8001dee:	f89d 1004 	ldrb.w	r1, [sp, #4]
 8001df2:	2900      	cmp	r1, #0
 8001df4:	d1d0      	bne.n	8001d98 <fileExists+0x10>
 8001df6:	222c      	movs	r2, #44	; 0x2c
 8001df8:	a801      	add	r0, sp, #4
 8001dfa:	f001 fa04 	bl	8003206 <memset>
 8001dfe:	e7e1      	b.n	8001dc4 <fileExists+0x3c>
 8001e00:	20000318 	.word	0x20000318

08001e04 <pathExists>:
 8001e04:	e92d 43f0 	stmdb	sp!, {r4, r5, r6, r7, r8, r9, lr}
 8001e08:	b0a1      	sub	sp, #132	; 0x84
 8001e0a:	4688      	mov	r8, r1
 8001e0c:	4607      	mov	r7, r0
 8001e0e:	a815      	add	r0, sp, #84	; 0x54
 8001e10:	f7ff fde4 	bl	80019dc <rootDir>
 8001e14:	4640      	mov	r0, r8
 8001e16:	f7fe f9df 	bl	80001d8 <strlen>
 8001e1a:	2801      	cmp	r0, #1
 8001e1c:	d149      	bne.n	8001eb2 <pathExists+0xae>
 8001e1e:	f898 3000 	ldrb.w	r3, [r8]
 8001e22:	2b2f      	cmp	r3, #47	; 0x2f
 8001e24:	d145      	bne.n	8001eb2 <pathExists+0xae>
 8001e26:	ad15      	add	r5, sp, #84	; 0x54
 8001e28:	cd0f      	ldmia	r5!, {r0, r1, r2, r3}
 8001e2a:	463c      	mov	r4, r7
 8001e2c:	c40f      	stmia	r4!, {r0, r1, r2, r3}
 8001e2e:	cd0f      	ldmia	r5!, {r0, r1, r2, r3}
 8001e30:	c40f      	stmia	r4!, {r0, r1, r2, r3}
 8001e32:	e895 0007 	ldmia.w	r5, {r0, r1, r2}
 8001e36:	e884 0007 	stmia.w	r4, {r0, r1, r2}
 8001e3a:	4638      	mov	r0, r7
 8001e3c:	b021      	add	sp, #132	; 0x84
 8001e3e:	e8bd 83f0 	ldmia.w	sp!, {r4, r5, r6, r7, r8, r9, pc}
 8001e42:	2100      	movs	r1, #0
 8001e44:	2220      	movs	r2, #32
 8001e46:	a80d      	add	r0, sp, #52	; 0x34
 8001e48:	f8cd 9030 	str.w	r9, [sp, #48]	; 0x30
 8001e4c:	f001 f9db 	bl	8003206 <memset>
 8001e50:	4623      	mov	r3, r4
 8001e52:	f104 0123 	add.w	r1, r4, #35	; 0x23
 8001e56:	1c5e      	adds	r6, r3, #1
 8001e58:	b2f6      	uxtb	r6, r6
 8001e5a:	42b1      	cmp	r1, r6
 8001e5c:	da1c      	bge.n	8001e98 <pathExists+0x94>
 8001e5e:	461e      	mov	r6, r3
 8001e60:	aa15      	add	r2, sp, #84	; 0x54
 8001e62:	a90c      	add	r1, sp, #48	; 0x30
 8001e64:	4668      	mov	r0, sp
 8001e66:	466c      	mov	r4, sp
 8001e68:	f7ff ff8e 	bl	8001d88 <fileExists>
 8001e6c:	cc0f      	ldmia	r4!, {r0, r1, r2, r3}
 8001e6e:	ad15      	add	r5, sp, #84	; 0x54
 8001e70:	c50f      	stmia	r5!, {r0, r1, r2, r3}
 8001e72:	cc0f      	ldmia	r4!, {r0, r1, r2, r3}
 8001e74:	c50f      	stmia	r5!, {r0, r1, r2, r3}
 8001e76:	e894 0007 	ldmia.w	r4, {r0, r1, r2}
 8001e7a:	f8bd 306e 	ldrh.w	r3, [sp, #110]	; 0x6e
 8001e7e:	e885 0007 	stmia.w	r5, {r0, r1, r2}
 8001e82:	f8bd 2068 	ldrh.w	r2, [sp, #104]	; 0x68
 8001e86:	ea53 4302 	orrs.w	r3, r3, r2, lsl #16
 8001e8a:	d0cc      	beq.n	8001e26 <pathExists+0x22>
 8001e8c:	4634      	mov	r4, r6
 8001e8e:	f818 3004 	ldrb.w	r3, [r8, r4]
 8001e92:	2b00      	cmp	r3, #0
 8001e94:	d1d5      	bne.n	8001e42 <pathExists+0x3e>
 8001e96:	e7c6      	b.n	8001e26 <pathExists+0x22>
 8001e98:	f818 2006 	ldrb.w	r2, [r8, r6]
 8001e9c:	2a2f      	cmp	r2, #47	; 0x2f
 8001e9e:	d0df      	beq.n	8001e60 <pathExists+0x5c>
 8001ea0:	2a00      	cmp	r2, #0
 8001ea2:	d0dd      	beq.n	8001e60 <pathExists+0x5c>
 8001ea4:	1b33      	subs	r3, r6, r4
 8001ea6:	3380      	adds	r3, #128	; 0x80
 8001ea8:	446b      	add	r3, sp
 8001eaa:	f803 2c51 	strb.w	r2, [r3, #-81]
 8001eae:	4633      	mov	r3, r6
 8001eb0:	e7d1      	b.n	8001e56 <pathExists+0x52>
 8001eb2:	2400      	movs	r4, #0
 8001eb4:	f04f 0900 	mov.w	r9, #0
 8001eb8:	e7e9      	b.n	8001e8e <pathExists+0x8a>

08001eba <fileClose>:
 8001eba:	b508      	push	{r3, lr}
 8001ebc:	222c      	movs	r2, #44	; 0x2c
 8001ebe:	2100      	movs	r1, #0
 8001ec0:	f001 f9a1 	bl	8003206 <memset>
 8001ec4:	e8bd 4008 	ldmia.w	sp!, {r3, lr}
 8001ec8:	f7ff bb08 	b.w	80014dc <SD_readMultipleSecStop>

08001ecc <isClosed>:
 8001ecc:	8b43      	ldrh	r3, [r0, #26]
 8001ece:	8a82      	ldrh	r2, [r0, #20]
 8001ed0:	ea53 4302 	orrs.w	r3, r3, r2, lsl #16
 8001ed4:	bf03      	ittte	eq
 8001ed6:	69c0      	ldreq	r0, [r0, #28]
 8001ed8:	fab0 f080 	clzeq	r0, r0
 8001edc:	0940      	lsreq	r0, r0, #5
 8001ede:	2000      	movne	r0, #0
 8001ee0:	4770      	bx	lr
	...

08001ee4 <readByte>:
 8001ee4:	b5f8      	push	{r3, r4, r5, r6, r7, lr}
 8001ee6:	4d2b      	ldr	r5, [pc, #172]	; (8001f94 <readByte+0xb0>)
 8001ee8:	4f2b      	ldr	r7, [pc, #172]	; (8001f98 <readByte+0xb4>)
 8001eea:	682b      	ldr	r3, [r5, #0]
 8001eec:	3301      	adds	r3, #1
 8001eee:	bf01      	itttt	eq
 8001ef0:	8b43      	ldrheq	r3, [r0, #26]
 8001ef2:	8a82      	ldrheq	r2, [r0, #20]
 8001ef4:	ea43 4302 	orreq.w	r3, r3, r2, lsl #16
 8001ef8:	602b      	streq	r3, [r5, #0]
 8001efa:	6a03      	ldr	r3, [r0, #32]
 8001efc:	4604      	mov	r4, r0
 8001efe:	b92b      	cbnz	r3, 8001f0c <readByte+0x28>
 8001f00:	8a82      	ldrh	r2, [r0, #20]
 8001f02:	703b      	strb	r3, [r7, #0]
 8001f04:	8b43      	ldrh	r3, [r0, #26]
 8001f06:	ea43 4302 	orr.w	r3, r3, r2, lsl #16
 8001f0a:	602b      	str	r3, [r5, #0]
 8001f0c:	4620      	mov	r0, r4
 8001f0e:	f7ff ffdd 	bl	8001ecc <isClosed>
 8001f12:	b120      	cbz	r0, 8001f1e <readByte+0x3a>
 8001f14:	f7ff fae2 	bl	80014dc <SD_readMultipleSecStop>
 8001f18:	2000      	movs	r0, #0
 8001f1a:	7038      	strb	r0, [r7, #0]
 8001f1c:	bdf8      	pop	{r3, r4, r5, r6, r7, pc}
 8001f1e:	783b      	ldrb	r3, [r7, #0]
 8001f20:	b94b      	cbnz	r3, 8001f36 <readByte+0x52>
 8001f22:	6828      	ldr	r0, [r5, #0]
 8001f24:	f7ff fcc6 	bl	80018b4 <startSecOfClus>
 8001f28:	f7ff fa98 	bl	800145c <SD_readMultipleSecStart>
 8001f2c:	481b      	ldr	r0, [pc, #108]	; (8001f9c <readByte+0xb8>)
 8001f2e:	f7ff faad 	bl	800148c <SD_readMultipleSec>
 8001f32:	2301      	movs	r3, #1
 8001f34:	703b      	strb	r3, [r7, #0]
 8001f36:	4e1a      	ldr	r6, [pc, #104]	; (8001fa0 <readByte+0xbc>)
 8001f38:	6a23      	ldr	r3, [r4, #32]
 8001f3a:	8831      	ldrh	r1, [r6, #0]
 8001f3c:	b19b      	cbz	r3, 8001f66 <readByte+0x82>
 8001f3e:	78b2      	ldrb	r2, [r6, #2]
 8001f40:	434a      	muls	r2, r1
 8001f42:	fbb3 f1f2 	udiv	r1, r3, r2
 8001f46:	fb02 3311 	mls	r3, r2, r1, r3
 8001f4a:	b963      	cbnz	r3, 8001f66 <readByte+0x82>
 8001f4c:	f7ff fac6 	bl	80014dc <SD_readMultipleSecStop>
 8001f50:	6828      	ldr	r0, [r5, #0]
 8001f52:	f7ff fd13 	bl	800197c <fatNextClus>
 8001f56:	4a13      	ldr	r2, [pc, #76]	; (8001fa4 <readByte+0xc0>)
 8001f58:	6028      	str	r0, [r5, #0]
 8001f5a:	4290      	cmp	r0, r2
 8001f5c:	d8da      	bhi.n	8001f14 <readByte+0x30>
 8001f5e:	f7ff fca9 	bl	80018b4 <startSecOfClus>
 8001f62:	f7ff fa7b 	bl	800145c <SD_readMultipleSecStart>
 8001f66:	6a23      	ldr	r3, [r4, #32]
 8001f68:	b143      	cbz	r3, 8001f7c <readByte+0x98>
 8001f6a:	8832      	ldrh	r2, [r6, #0]
 8001f6c:	fbb3 f1f2 	udiv	r1, r3, r2
 8001f70:	fb02 3311 	mls	r3, r2, r1, r3
 8001f74:	b913      	cbnz	r3, 8001f7c <readByte+0x98>
 8001f76:	4809      	ldr	r0, [pc, #36]	; (8001f9c <readByte+0xb8>)
 8001f78:	f7ff fa88 	bl	800148c <SD_readMultipleSec>
 8001f7c:	6a23      	ldr	r3, [r4, #32]
 8001f7e:	1c5a      	adds	r2, r3, #1
 8001f80:	6222      	str	r2, [r4, #32]
 8001f82:	8832      	ldrh	r2, [r6, #0]
 8001f84:	fbb3 f1f2 	udiv	r1, r3, r2
 8001f88:	fb02 3311 	mls	r3, r2, r1, r3
 8001f8c:	4a03      	ldr	r2, [pc, #12]	; (8001f9c <readByte+0xb8>)
 8001f8e:	5cd0      	ldrb	r0, [r2, r3]
 8001f90:	e7c4      	b.n	8001f1c <readByte+0x38>
 8001f92:	bf00      	nop
 8001f94:	20000004 	.word	0x20000004
 8001f98:	200003c4 	.word	0x200003c4
 8001f9c:	20000118 	.word	0x20000118
 8001fa0:	2000039c 	.word	0x2000039c
 8001fa4:	0ffffff7 	.word	0x0ffffff7

08001fa8 <fileDelete>:
 8001fa8:	e92d 41f0 	stmdb	sp!, {r4, r5, r6, r7, r8, lr}
 8001fac:	b096      	sub	sp, #88	; 0x58
 8001fae:	460e      	mov	r6, r1
 8001fb0:	4601      	mov	r1, r0
 8001fb2:	a80b      	add	r0, sp, #44	; 0x2c
 8001fb4:	f7ff ff26 	bl	8001e04 <pathExists>
 8001fb8:	f8bd 3046 	ldrh.w	r3, [sp, #70]	; 0x46
 8001fbc:	f8bd 2040 	ldrh.w	r2, [sp, #64]	; 0x40
 8001fc0:	ea53 4302 	orrs.w	r3, r3, r2, lsl #16
 8001fc4:	d103      	bne.n	8001fce <fileDelete+0x26>
 8001fc6:	2000      	movs	r0, #0
 8001fc8:	b016      	add	sp, #88	; 0x58
 8001fca:	e8bd 81f0 	ldmia.w	sp!, {r4, r5, r6, r7, r8, pc}
 8001fce:	ad0b      	add	r5, sp, #44	; 0x2c
 8001fd0:	cd0f      	ldmia	r5!, {r0, r1, r2, r3}
 8001fd2:	466c      	mov	r4, sp
 8001fd4:	c40f      	stmia	r4!, {r0, r1, r2, r3}
 8001fd6:	cd0f      	ldmia	r5!, {r0, r1, r2, r3}
 8001fd8:	c40f      	stmia	r4!, {r0, r1, r2, r3}
 8001fda:	e895 0007 	ldmia.w	r5, {r0, r1, r2}
 8001fde:	e884 0007 	stmia.w	r4, {r0, r1, r2}
 8001fe2:	466a      	mov	r2, sp
 8001fe4:	4631      	mov	r1, r6
 8001fe6:	a80b      	add	r0, sp, #44	; 0x2c
 8001fe8:	f7ff fece 	bl	8001d88 <fileExists>
 8001fec:	f8bd 5046 	ldrh.w	r5, [sp, #70]	; 0x46
 8001ff0:	f8bd 3040 	ldrh.w	r3, [sp, #64]	; 0x40
 8001ff4:	f8dd 8050 	ldr.w	r8, [sp, #80]	; 0x50
 8001ff8:	f89d 7054 	ldrb.w	r7, [sp, #84]	; 0x54
 8001ffc:	ea55 4503 	orrs.w	r5, r5, r3, lsl #16
 8002000:	d0e1      	beq.n	8001fc6 <fileDelete+0x1e>
 8002002:	4630      	mov	r0, r6
 8002004:	f7ff fca2 	bl	800194c <mixedLetters>
 8002008:	4604      	mov	r4, r0
 800200a:	b920      	cbnz	r0, 8002016 <fileDelete+0x6e>
 800200c:	4630      	mov	r0, r6
 800200e:	f7ff fc5d 	bl	80018cc <fileNameLength>
 8002012:	2808      	cmp	r0, #8
 8002014:	d90b      	bls.n	800202e <fileDelete+0x86>
 8002016:	4630      	mov	r0, r6
 8002018:	f7fe f8de 	bl	80001d8 <strlen>
 800201c:	220d      	movs	r2, #13
 800201e:	fbb0 f3f2 	udiv	r3, r0, r2
 8002022:	fb02 0013 	mls	r0, r2, r3, r0
 8002026:	b2dc      	uxtb	r4, r3
 8002028:	b108      	cbz	r0, 800202e <fileDelete+0x86>
 800202a:	3401      	adds	r4, #1
 800202c:	b2e4      	uxtb	r4, r4
 800202e:	4640      	mov	r0, r8
 8002030:	f7ff fc40 	bl	80018b4 <startSecOfClus>
 8002034:	4915      	ldr	r1, [pc, #84]	; (800208c <fileDelete+0xe4>)
 8002036:	4438      	add	r0, r7
 8002038:	f7ff f9a8 	bl	800138c <SD_readSector>
 800203c:	2803      	cmp	r0, #3
 800203e:	d1c2      	bne.n	8001fc6 <fileDelete+0x1e>
 8002040:	f89d 6055 	ldrb.w	r6, [sp, #85]	; 0x55
 8002044:	4911      	ldr	r1, [pc, #68]	; (800208c <fileDelete+0xe4>)
 8002046:	2200      	movs	r2, #0
 8002048:	20e5      	movs	r0, #229	; 0xe5
 800204a:	b2d3      	uxtb	r3, r2
 800204c:	1af3      	subs	r3, r6, r3
 800204e:	015b      	lsls	r3, r3, #5
 8002050:	3201      	adds	r2, #1
 8002052:	54c8      	strb	r0, [r1, r3]
 8002054:	b2d3      	uxtb	r3, r2
 8002056:	429c      	cmp	r4, r3
 8002058:	d2f7      	bcs.n	800204a <fileDelete+0xa2>
 800205a:	4640      	mov	r0, r8
 800205c:	f7ff fc2a 	bl	80018b4 <startSecOfClus>
 8002060:	490a      	ldr	r1, [pc, #40]	; (800208c <fileDelete+0xe4>)
 8002062:	4438      	add	r0, r7
 8002064:	f7ff f9ea 	bl	800143c <SD_writeSector>
 8002068:	2805      	cmp	r0, #5
 800206a:	d1ac      	bne.n	8001fc6 <fileDelete+0x1e>
 800206c:	4e08      	ldr	r6, [pc, #32]	; (8002090 <fileDelete+0xe8>)
 800206e:	42b5      	cmp	r5, r6
 8002070:	d901      	bls.n	8002076 <fileDelete+0xce>
 8002072:	2001      	movs	r0, #1
 8002074:	e7a8      	b.n	8001fc8 <fileDelete+0x20>
 8002076:	4628      	mov	r0, r5
 8002078:	f7ff fc80 	bl	800197c <fatNextClus>
 800207c:	2100      	movs	r1, #0
 800207e:	4604      	mov	r4, r0
 8002080:	4628      	mov	r0, r5
 8002082:	f7ff fc45 	bl	8001910 <fatSetNextClus>
 8002086:	4625      	mov	r5, r4
 8002088:	e7f1      	b.n	800206e <fileDelete+0xc6>
 800208a:	bf00      	nop
 800208c:	20000118 	.word	0x20000118
 8002090:	0ffffff7 	.word	0x0ffffff7

08002094 <mySdFat_init>:
 8002094:	b5f8      	push	{r3, r4, r5, r6, r7, lr}
 8002096:	f7ff f8db 	bl	8001250 <SD_init>
 800209a:	2802      	cmp	r0, #2
 800209c:	d101      	bne.n	80020a2 <mySdFat_init+0xe>
 800209e:	2000      	movs	r0, #0
 80020a0:	bdf8      	pop	{r3, r4, r5, r6, r7, pc}
 80020a2:	4c25      	ldr	r4, [pc, #148]	; (8002138 <mySdFat_init+0xa4>)
 80020a4:	f44f 5000 	mov.w	r0, #8192	; 0x2000
 80020a8:	4621      	mov	r1, r4
 80020aa:	f7ff f96f 	bl	800138c <SD_readSector>
 80020ae:	2803      	cmp	r0, #3
 80020b0:	d1f5      	bne.n	800209e <mySdFat_init+0xa>
 80020b2:	4b22      	ldr	r3, [pc, #136]	; (800213c <mySdFat_init+0xa8>)
 80020b4:	6ae7      	ldr	r7, [r4, #44]	; 0x2c
 80020b6:	615f      	str	r7, [r3, #20]
 80020b8:	8e27      	ldrh	r7, [r4, #48]	; 0x30
 80020ba:	831f      	strh	r7, [r3, #24]
 80020bc:	f8d4 7047 	ldr.w	r7, [r4, #71]	; 0x47
 80020c0:	7b62      	ldrb	r2, [r4, #13]
 80020c2:	f8c3 701a 	str.w	r7, [r3, #26]
 80020c6:	f8d4 704b 	ldr.w	r7, [r4, #75]	; 0x4b
 80020ca:	709a      	strb	r2, [r3, #2]
 80020cc:	f8b4 600b 	ldrh.w	r6, [r4, #11]
 80020d0:	89e2      	ldrh	r2, [r4, #14]
 80020d2:	6a25      	ldr	r5, [r4, #32]
 80020d4:	f8d4 c024 	ldr.w	ip, [r4, #36]	; 0x24
 80020d8:	f8b4 1011 	ldrh.w	r1, [r4, #17]
 80020dc:	7c20      	ldrb	r0, [r4, #16]
 80020de:	f8c3 701e 	str.w	r7, [r3, #30]
 80020e2:	f8b4 704f 	ldrh.w	r7, [r4, #79]	; 0x4f
 80020e6:	f894 4051 	ldrb.w	r4, [r4, #81]	; 0x51
 80020ea:	f883 4024 	strb.w	r4, [r3, #36]	; 0x24
 80020ee:	2400      	movs	r4, #0
 80020f0:	801e      	strh	r6, [r3, #0]
 80020f2:	809a      	strh	r2, [r3, #4]
 80020f4:	60dd      	str	r5, [r3, #12]
 80020f6:	8119      	strh	r1, [r3, #8]
 80020f8:	7198      	strb	r0, [r3, #6]
 80020fa:	845f      	strh	r7, [r3, #34]	; 0x22
 80020fc:	f8c3 c010 	str.w	ip, [r3, #16]
 8002100:	f883 4022 	strb.w	r4, [r3, #34]	; 0x22
 8002104:	4b0e      	ldr	r3, [pc, #56]	; (8002140 <mySdFat_init+0xac>)
 8002106:	f502 5200 	add.w	r2, r2, #8192	; 0x2000
 800210a:	601a      	str	r2, [r3, #0]
 800210c:	4b0d      	ldr	r3, [pc, #52]	; (8002144 <mySdFat_init+0xb0>)
 800210e:	fb0c f000 	mul.w	r0, ip, r0
 8002112:	6018      	str	r0, [r3, #0]
 8002114:	4b0c      	ldr	r3, [pc, #48]	; (8002148 <mySdFat_init+0xb4>)
 8002116:	4402      	add	r2, r0
 8002118:	601a      	str	r2, [r3, #0]
 800211a:	4b0c      	ldr	r3, [pc, #48]	; (800214c <mySdFat_init+0xb8>)
 800211c:	eb06 1141 	add.w	r1, r6, r1, lsl #5
 8002120:	3901      	subs	r1, #1
 8002122:	fb91 f1f6 	sdiv	r1, r1, r6
 8002126:	6019      	str	r1, [r3, #0]
 8002128:	4b09      	ldr	r3, [pc, #36]	; (8002150 <mySdFat_init+0xbc>)
 800212a:	440a      	add	r2, r1
 800212c:	601a      	str	r2, [r3, #0]
 800212e:	4b09      	ldr	r3, [pc, #36]	; (8002154 <mySdFat_init+0xc0>)
 8002130:	1aad      	subs	r5, r5, r2
 8002132:	601d      	str	r5, [r3, #0]
 8002134:	2001      	movs	r0, #1
 8002136:	e7b3      	b.n	80020a0 <mySdFat_init+0xc>
 8002138:	20000118 	.word	0x20000118
 800213c:	2000039c 	.word	0x2000039c
 8002140:	2000010c 	.word	0x2000010c
 8002144:	20000108 	.word	0x20000108
 8002148:	20000114 	.word	0x20000114
 800214c:	20000110 	.word	0x20000110
 8002150:	20000104 	.word	0x20000104
 8002154:	20000100 	.word	0x20000100

08002158 <HAL_MspDeInit>:
 8002158:	4770      	bx	lr
	...

0800215c <HAL_DeInit>:
 800215c:	4b0b      	ldr	r3, [pc, #44]	; (800218c <HAL_DeInit+0x30>)
 800215e:	4a0c      	ldr	r2, [pc, #48]	; (8002190 <HAL_DeInit+0x34>)
 8002160:	b510      	push	{r4, lr}
 8002162:	621a      	str	r2, [r3, #32]
 8002164:	2400      	movs	r4, #0
 8002166:	4a0b      	ldr	r2, [pc, #44]	; (8002194 <HAL_DeInit+0x38>)
 8002168:	621c      	str	r4, [r3, #32]
 800216a:	625a      	str	r2, [r3, #36]	; 0x24
 800216c:	4a0a      	ldr	r2, [pc, #40]	; (8002198 <HAL_DeInit+0x3c>)
 800216e:	625c      	str	r4, [r3, #36]	; 0x24
 8002170:	611a      	str	r2, [r3, #16]
 8002172:	2280      	movs	r2, #128	; 0x80
 8002174:	611c      	str	r4, [r3, #16]
 8002176:	615a      	str	r2, [r3, #20]
 8002178:	f04f 32ff 	mov.w	r2, #4294967295	; 0xffffffff
 800217c:	615c      	str	r4, [r3, #20]
 800217e:	619a      	str	r2, [r3, #24]
 8002180:	619c      	str	r4, [r3, #24]
 8002182:	f7ff ffe9 	bl	8002158 <HAL_MspDeInit>
 8002186:	4620      	mov	r0, r4
 8002188:	bd10      	pop	{r4, pc}
 800218a:	bf00      	nop
 800218c:	40023800 	.word	0x40023800
 8002190:	10e2c80f 	.word	0x10e2c80f
 8002194:	00077931 	.word	0x00077931
 8002198:	0060109f 	.word	0x0060109f

0800219c <HAL_InitTick>:
 800219c:	b538      	push	{r3, r4, r5, lr}
 800219e:	4b0e      	ldr	r3, [pc, #56]	; (80021d8 <HAL_InitTick+0x3c>)
 80021a0:	781a      	ldrb	r2, [r3, #0]
 80021a2:	f44f 737a 	mov.w	r3, #1000	; 0x3e8
 80021a6:	fbb3 f3f2 	udiv	r3, r3, r2
 80021aa:	4a0c      	ldr	r2, [pc, #48]	; (80021dc <HAL_InitTick+0x40>)
 80021ac:	4605      	mov	r5, r0
 80021ae:	6810      	ldr	r0, [r2, #0]
 80021b0:	fbb0 f0f3 	udiv	r0, r0, r3
 80021b4:	f000 f89a 	bl	80022ec <HAL_SYSTICK_Config>
 80021b8:	4604      	mov	r4, r0
 80021ba:	b958      	cbnz	r0, 80021d4 <HAL_InitTick+0x38>
 80021bc:	2d0f      	cmp	r5, #15
 80021be:	d809      	bhi.n	80021d4 <HAL_InitTick+0x38>
 80021c0:	4602      	mov	r2, r0
 80021c2:	4629      	mov	r1, r5
 80021c4:	f04f 30ff 	mov.w	r0, #4294967295	; 0xffffffff
 80021c8:	f000 f85e 	bl	8002288 <HAL_NVIC_SetPriority>
 80021cc:	4b04      	ldr	r3, [pc, #16]	; (80021e0 <HAL_InitTick+0x44>)
 80021ce:	4620      	mov	r0, r4
 80021d0:	601d      	str	r5, [r3, #0]
 80021d2:	bd38      	pop	{r3, r4, r5, pc}
 80021d4:	2001      	movs	r0, #1
 80021d6:	e7fc      	b.n	80021d2 <HAL_InitTick+0x36>
 80021d8:	20000008 	.word	0x20000008
 80021dc:	20000000 	.word	0x20000000
 80021e0:	2000000c 	.word	0x2000000c

080021e4 <HAL_Init>:
 80021e4:	b508      	push	{r3, lr}
 80021e6:	4b0b      	ldr	r3, [pc, #44]	; (8002214 <HAL_Init+0x30>)
 80021e8:	681a      	ldr	r2, [r3, #0]
 80021ea:	f442 7200 	orr.w	r2, r2, #512	; 0x200
 80021ee:	601a      	str	r2, [r3, #0]
 80021f0:	681a      	ldr	r2, [r3, #0]
 80021f2:	f442 6280 	orr.w	r2, r2, #1024	; 0x400
 80021f6:	601a      	str	r2, [r3, #0]
 80021f8:	681a      	ldr	r2, [r3, #0]
 80021fa:	f442 7280 	orr.w	r2, r2, #256	; 0x100
 80021fe:	601a      	str	r2, [r3, #0]
 8002200:	2003      	movs	r0, #3
 8002202:	f000 f82f 	bl	8002264 <HAL_NVIC_SetPriorityGrouping>
 8002206:	200f      	movs	r0, #15
 8002208:	f7ff ffc8 	bl	800219c <HAL_InitTick>
 800220c:	f7fe fe34 	bl	8000e78 <HAL_MspInit>
 8002210:	2000      	movs	r0, #0
 8002212:	bd08      	pop	{r3, pc}
 8002214:	40023c00 	.word	0x40023c00

08002218 <HAL_IncTick>:
 8002218:	4a03      	ldr	r2, [pc, #12]	; (8002228 <HAL_IncTick+0x10>)
 800221a:	4b04      	ldr	r3, [pc, #16]	; (800222c <HAL_IncTick+0x14>)
 800221c:	6811      	ldr	r1, [r2, #0]
 800221e:	781b      	ldrb	r3, [r3, #0]
 8002220:	440b      	add	r3, r1
 8002222:	6013      	str	r3, [r2, #0]
 8002224:	4770      	bx	lr
 8002226:	bf00      	nop
 8002228:	200003c8 	.word	0x200003c8
 800222c:	20000008 	.word	0x20000008

08002230 <HAL_GetTick>:
 8002230:	4b01      	ldr	r3, [pc, #4]	; (8002238 <HAL_GetTick+0x8>)
 8002232:	6818      	ldr	r0, [r3, #0]
 8002234:	4770      	bx	lr
 8002236:	bf00      	nop
 8002238:	200003c8 	.word	0x200003c8

0800223c <HAL_Delay>:
 800223c:	b538      	push	{r3, r4, r5, lr}
 800223e:	4604      	mov	r4, r0
 8002240:	f7ff fff6 	bl	8002230 <HAL_GetTick>
 8002244:	1c63      	adds	r3, r4, #1
 8002246:	bf1c      	itt	ne
 8002248:	4b05      	ldrne	r3, [pc, #20]	; (8002260 <HAL_Delay+0x24>)
 800224a:	781b      	ldrbne	r3, [r3, #0]
 800224c:	4605      	mov	r5, r0
 800224e:	bf18      	it	ne
 8002250:	18e4      	addne	r4, r4, r3
 8002252:	f7ff ffed 	bl	8002230 <HAL_GetTick>
 8002256:	1b43      	subs	r3, r0, r5
 8002258:	42a3      	cmp	r3, r4
 800225a:	d3fa      	bcc.n	8002252 <HAL_Delay+0x16>
 800225c:	bd38      	pop	{r3, r4, r5, pc}
 800225e:	bf00      	nop
 8002260:	20000008 	.word	0x20000008

08002264 <HAL_NVIC_SetPriorityGrouping>:
 8002264:	4907      	ldr	r1, [pc, #28]	; (8002284 <HAL_NVIC_SetPriorityGrouping+0x20>)
 8002266:	68ca      	ldr	r2, [r1, #12]
 8002268:	f422 62e0 	bic.w	r2, r2, #1792	; 0x700
 800226c:	0203      	lsls	r3, r0, #8
 800226e:	0412      	lsls	r2, r2, #16
 8002270:	f403 63e0 	and.w	r3, r3, #1792	; 0x700
 8002274:	0c12      	lsrs	r2, r2, #16
 8002276:	4313      	orrs	r3, r2
 8002278:	f043 63bf 	orr.w	r3, r3, #100139008	; 0x5f80000
 800227c:	f443 3300 	orr.w	r3, r3, #131072	; 0x20000
 8002280:	60cb      	str	r3, [r1, #12]
 8002282:	4770      	bx	lr
 8002284:	e000ed00 	.word	0xe000ed00

08002288 <HAL_NVIC_SetPriority>:
 8002288:	4b16      	ldr	r3, [pc, #88]	; (80022e4 <HAL_NVIC_SetPriority+0x5c>)
 800228a:	b530      	push	{r4, r5, lr}
 800228c:	68dc      	ldr	r4, [r3, #12]
 800228e:	f3c4 2402 	ubfx	r4, r4, #8, #3
 8002292:	f1c4 0307 	rsb	r3, r4, #7
 8002296:	1d25      	adds	r5, r4, #4
 8002298:	2b04      	cmp	r3, #4
 800229a:	bf28      	it	cs
 800229c:	2304      	movcs	r3, #4
 800229e:	2d06      	cmp	r5, #6
 80022a0:	f04f 35ff 	mov.w	r5, #4294967295	; 0xffffffff
 80022a4:	bf8c      	ite	hi
 80022a6:	3c03      	subhi	r4, #3
 80022a8:	2400      	movls	r4, #0
 80022aa:	fa05 f303 	lsl.w	r3, r5, r3
 80022ae:	ea21 0303 	bic.w	r3, r1, r3
 80022b2:	40a5      	lsls	r5, r4
 80022b4:	ea22 0205 	bic.w	r2, r2, r5
 80022b8:	40a3      	lsls	r3, r4
 80022ba:	2800      	cmp	r0, #0
 80022bc:	ea43 0302 	orr.w	r3, r3, r2
 80022c0:	bfac      	ite	ge
 80022c2:	f100 4060 	addge.w	r0, r0, #3758096384	; 0xe0000000
 80022c6:	4a08      	ldrlt	r2, [pc, #32]	; (80022e8 <HAL_NVIC_SetPriority+0x60>)
 80022c8:	ea4f 1303 	mov.w	r3, r3, lsl #4
 80022cc:	bfb8      	it	lt
 80022ce:	f000 000f 	andlt.w	r0, r0, #15
 80022d2:	b2db      	uxtb	r3, r3
 80022d4:	bfaa      	itet	ge
 80022d6:	f500 4061 	addge.w	r0, r0, #57600	; 0xe100
 80022da:	5413      	strblt	r3, [r2, r0]
 80022dc:	f880 3300 	strbge.w	r3, [r0, #768]	; 0x300
 80022e0:	bd30      	pop	{r4, r5, pc}
 80022e2:	bf00      	nop
 80022e4:	e000ed00 	.word	0xe000ed00
 80022e8:	e000ed14 	.word	0xe000ed14

080022ec <HAL_SYSTICK_Config>:
 80022ec:	3801      	subs	r0, #1
 80022ee:	f1b0 7f80 	cmp.w	r0, #16777216	; 0x1000000
 80022f2:	d20b      	bcs.n	800230c <HAL_SYSTICK_Config+0x20>
 80022f4:	f04f 23e0 	mov.w	r3, #3758153728	; 0xe000e000
 80022f8:	4a05      	ldr	r2, [pc, #20]	; (8002310 <HAL_SYSTICK_Config+0x24>)
 80022fa:	6158      	str	r0, [r3, #20]
 80022fc:	21f0      	movs	r1, #240	; 0xf0
 80022fe:	f882 1023 	strb.w	r1, [r2, #35]	; 0x23
 8002302:	2000      	movs	r0, #0
 8002304:	2207      	movs	r2, #7
 8002306:	6198      	str	r0, [r3, #24]
 8002308:	611a      	str	r2, [r3, #16]
 800230a:	4770      	bx	lr
 800230c:	2001      	movs	r0, #1
 800230e:	4770      	bx	lr
 8002310:	e000ed00 	.word	0xe000ed00

08002314 <FLASH_Program_DoubleWord>:
 8002314:	4909      	ldr	r1, [pc, #36]	; (800233c <FLASH_Program_DoubleWord+0x28>)
 8002316:	b510      	push	{r4, lr}
 8002318:	690c      	ldr	r4, [r1, #16]
 800231a:	f424 7440 	bic.w	r4, r4, #768	; 0x300
 800231e:	610c      	str	r4, [r1, #16]
 8002320:	690c      	ldr	r4, [r1, #16]
 8002322:	f444 7440 	orr.w	r4, r4, #768	; 0x300
 8002326:	610c      	str	r4, [r1, #16]
 8002328:	690c      	ldr	r4, [r1, #16]
 800232a:	f044 0401 	orr.w	r4, r4, #1
 800232e:	610c      	str	r4, [r1, #16]
 8002330:	6002      	str	r2, [r0, #0]
 8002332:	f3bf 8f6f 	isb	sy
 8002336:	6043      	str	r3, [r0, #4]
 8002338:	bd10      	pop	{r4, pc}
 800233a:	bf00      	nop
 800233c:	40023c00 	.word	0x40023c00

08002340 <FLASH_Program_Word>:
 8002340:	4b07      	ldr	r3, [pc, #28]	; (8002360 <FLASH_Program_Word+0x20>)
 8002342:	691a      	ldr	r2, [r3, #16]
 8002344:	f422 7240 	bic.w	r2, r2, #768	; 0x300
 8002348:	611a      	str	r2, [r3, #16]
 800234a:	691a      	ldr	r2, [r3, #16]
 800234c:	f442 7200 	orr.w	r2, r2, #512	; 0x200
 8002350:	611a      	str	r2, [r3, #16]
 8002352:	691a      	ldr	r2, [r3, #16]
 8002354:	f042 0201 	orr.w	r2, r2, #1
 8002358:	611a      	str	r2, [r3, #16]
 800235a:	6001      	str	r1, [r0, #0]
 800235c:	4770      	bx	lr
 800235e:	bf00      	nop
 8002360:	40023c00 	.word	0x40023c00

08002364 <FLASH_Program_HalfWord>:
 8002364:	4b07      	ldr	r3, [pc, #28]	; (8002384 <FLASH_Program_HalfWord+0x20>)
 8002366:	691a      	ldr	r2, [r3, #16]
 8002368:	f422 7240 	bic.w	r2, r2, #768	; 0x300
 800236c:	611a      	str	r2, [r3, #16]
 800236e:	691a      	ldr	r2, [r3, #16]
 8002370:	f442 7280 	orr.w	r2, r2, #256	; 0x100
 8002374:	611a      	str	r2, [r3, #16]
 8002376:	691a      	ldr	r2, [r3, #16]
 8002378:	f042 0201 	orr.w	r2, r2, #1
 800237c:	611a      	str	r2, [r3, #16]
 800237e:	8001      	strh	r1, [r0, #0]
 8002380:	4770      	bx	lr
 8002382:	bf00      	nop
 8002384:	40023c00 	.word	0x40023c00

08002388 <FLASH_SetErrorCode>:
 8002388:	4b20      	ldr	r3, [pc, #128]	; (800240c <FLASH_SetErrorCode+0x84>)
 800238a:	68da      	ldr	r2, [r3, #12]
 800238c:	06d0      	lsls	r0, r2, #27
 800238e:	d506      	bpl.n	800239e <FLASH_SetErrorCode+0x16>
 8002390:	491f      	ldr	r1, [pc, #124]	; (8002410 <FLASH_SetErrorCode+0x88>)
 8002392:	69ca      	ldr	r2, [r1, #28]
 8002394:	f042 0210 	orr.w	r2, r2, #16
 8002398:	61ca      	str	r2, [r1, #28]
 800239a:	2210      	movs	r2, #16
 800239c:	60da      	str	r2, [r3, #12]
 800239e:	68da      	ldr	r2, [r3, #12]
 80023a0:	0691      	lsls	r1, r2, #26
 80023a2:	d506      	bpl.n	80023b2 <FLASH_SetErrorCode+0x2a>
 80023a4:	491a      	ldr	r1, [pc, #104]	; (8002410 <FLASH_SetErrorCode+0x88>)
 80023a6:	69ca      	ldr	r2, [r1, #28]
 80023a8:	f042 0208 	orr.w	r2, r2, #8
 80023ac:	61ca      	str	r2, [r1, #28]
 80023ae:	2220      	movs	r2, #32
 80023b0:	60da      	str	r2, [r3, #12]
 80023b2:	4b16      	ldr	r3, [pc, #88]	; (800240c <FLASH_SetErrorCode+0x84>)
 80023b4:	68da      	ldr	r2, [r3, #12]
 80023b6:	0652      	lsls	r2, r2, #25
 80023b8:	d506      	bpl.n	80023c8 <FLASH_SetErrorCode+0x40>
 80023ba:	4915      	ldr	r1, [pc, #84]	; (8002410 <FLASH_SetErrorCode+0x88>)
 80023bc:	69ca      	ldr	r2, [r1, #28]
 80023be:	f042 0204 	orr.w	r2, r2, #4
 80023c2:	61ca      	str	r2, [r1, #28]
 80023c4:	2240      	movs	r2, #64	; 0x40
 80023c6:	60da      	str	r2, [r3, #12]
 80023c8:	68da      	ldr	r2, [r3, #12]
 80023ca:	0610      	lsls	r0, r2, #24
 80023cc:	d506      	bpl.n	80023dc <FLASH_SetErrorCode+0x54>
 80023ce:	4910      	ldr	r1, [pc, #64]	; (8002410 <FLASH_SetErrorCode+0x88>)
 80023d0:	69ca      	ldr	r2, [r1, #28]
 80023d2:	f042 0202 	orr.w	r2, r2, #2
 80023d6:	61ca      	str	r2, [r1, #28]
 80023d8:	2280      	movs	r2, #128	; 0x80
 80023da:	60da      	str	r2, [r3, #12]
 80023dc:	4b0b      	ldr	r3, [pc, #44]	; (800240c <FLASH_SetErrorCode+0x84>)
 80023de:	68da      	ldr	r2, [r3, #12]
 80023e0:	05d1      	lsls	r1, r2, #23
 80023e2:	d507      	bpl.n	80023f4 <FLASH_SetErrorCode+0x6c>
 80023e4:	490a      	ldr	r1, [pc, #40]	; (8002410 <FLASH_SetErrorCode+0x88>)
 80023e6:	69ca      	ldr	r2, [r1, #28]
 80023e8:	f042 0201 	orr.w	r2, r2, #1
 80023ec:	61ca      	str	r2, [r1, #28]
 80023ee:	f44f 7280 	mov.w	r2, #256	; 0x100
 80023f2:	60da      	str	r2, [r3, #12]
 80023f4:	68da      	ldr	r2, [r3, #12]
 80023f6:	0792      	lsls	r2, r2, #30
 80023f8:	d506      	bpl.n	8002408 <FLASH_SetErrorCode+0x80>
 80023fa:	4905      	ldr	r1, [pc, #20]	; (8002410 <FLASH_SetErrorCode+0x88>)
 80023fc:	69ca      	ldr	r2, [r1, #28]
 80023fe:	f042 0220 	orr.w	r2, r2, #32
 8002402:	61ca      	str	r2, [r1, #28]
 8002404:	2202      	movs	r2, #2
 8002406:	60da      	str	r2, [r3, #12]
 8002408:	4770      	bx	lr
 800240a:	bf00      	nop
 800240c:	40023c00 	.word	0x40023c00
 8002410:	200003cc 	.word	0x200003cc

08002414 <HAL_FLASH_Unlock>:
 8002414:	4b06      	ldr	r3, [pc, #24]	; (8002430 <HAL_FLASH_Unlock+0x1c>)
 8002416:	691a      	ldr	r2, [r3, #16]
 8002418:	2a00      	cmp	r2, #0
 800241a:	bfbf      	itttt	lt
 800241c:	4a05      	ldrlt	r2, [pc, #20]	; (8002434 <HAL_FLASH_Unlock+0x20>)
 800241e:	605a      	strlt	r2, [r3, #4]
 8002420:	f102 3288 	addlt.w	r2, r2, #2290649224	; 0x88888888
 8002424:	605a      	strlt	r2, [r3, #4]
 8002426:	bfba      	itte	lt
 8002428:	6918      	ldrlt	r0, [r3, #16]
 800242a:	0fc0      	lsrlt	r0, r0, #31
 800242c:	2000      	movge	r0, #0
 800242e:	4770      	bx	lr
 8002430:	40023c00 	.word	0x40023c00
 8002434:	45670123 	.word	0x45670123

08002438 <HAL_FLASH_Lock>:
 8002438:	4a03      	ldr	r2, [pc, #12]	; (8002448 <HAL_FLASH_Lock+0x10>)
 800243a:	6913      	ldr	r3, [r2, #16]
 800243c:	f043 4300 	orr.w	r3, r3, #2147483648	; 0x80000000
 8002440:	6113      	str	r3, [r2, #16]
 8002442:	2000      	movs	r0, #0
 8002444:	4770      	bx	lr
 8002446:	bf00      	nop
 8002448:	40023c00 	.word	0x40023c00

0800244c <FLASH_WaitForLastOperation>:
 800244c:	4b11      	ldr	r3, [pc, #68]	; (8002494 <FLASH_WaitForLastOperation+0x48>)
 800244e:	b570      	push	{r4, r5, r6, lr}
 8002450:	2200      	movs	r2, #0
 8002452:	4604      	mov	r4, r0
 8002454:	61da      	str	r2, [r3, #28]
 8002456:	f7ff feeb 	bl	8002230 <HAL_GetTick>
 800245a:	4d0f      	ldr	r5, [pc, #60]	; (8002498 <FLASH_WaitForLastOperation+0x4c>)
 800245c:	4606      	mov	r6, r0
 800245e:	68eb      	ldr	r3, [r5, #12]
 8002460:	03da      	lsls	r2, r3, #15
 8002462:	d40c      	bmi.n	800247e <FLASH_WaitForLastOperation+0x32>
 8002464:	68eb      	ldr	r3, [r5, #12]
 8002466:	07db      	lsls	r3, r3, #31
 8002468:	bf44      	itt	mi
 800246a:	2301      	movmi	r3, #1
 800246c:	60eb      	strmi	r3, [r5, #12]
 800246e:	68e8      	ldr	r0, [r5, #12]
 8002470:	f410 70f9 	ands.w	r0, r0, #498	; 0x1f2
 8002474:	d007      	beq.n	8002486 <FLASH_WaitForLastOperation+0x3a>
 8002476:	f7ff ff87 	bl	8002388 <FLASH_SetErrorCode>
 800247a:	2001      	movs	r0, #1
 800247c:	e003      	b.n	8002486 <FLASH_WaitForLastOperation+0x3a>
 800247e:	1c61      	adds	r1, r4, #1
 8002480:	d0ed      	beq.n	800245e <FLASH_WaitForLastOperation+0x12>
 8002482:	b90c      	cbnz	r4, 8002488 <FLASH_WaitForLastOperation+0x3c>
 8002484:	2003      	movs	r0, #3
 8002486:	bd70      	pop	{r4, r5, r6, pc}
 8002488:	f7ff fed2 	bl	8002230 <HAL_GetTick>
 800248c:	1b80      	subs	r0, r0, r6
 800248e:	42a0      	cmp	r0, r4
 8002490:	d9e5      	bls.n	800245e <FLASH_WaitForLastOperation+0x12>
 8002492:	e7f7      	b.n	8002484 <FLASH_WaitForLastOperation+0x38>
 8002494:	200003cc 	.word	0x200003cc
 8002498:	40023c00 	.word	0x40023c00

0800249c <HAL_FLASH_Program>:
 800249c:	b5f7      	push	{r0, r1, r2, r4, r5, r6, r7, lr}
 800249e:	4e20      	ldr	r6, [pc, #128]	; (8002520 <HAL_FLASH_Program+0x84>)
 80024a0:	9301      	str	r3, [sp, #4]
 80024a2:	4614      	mov	r4, r2
 80024a4:	7e32      	ldrb	r2, [r6, #24]
 80024a6:	2a01      	cmp	r2, #1
 80024a8:	4607      	mov	r7, r0
 80024aa:	460d      	mov	r5, r1
 80024ac:	d035      	beq.n	800251a <HAL_FLASH_Program+0x7e>
 80024ae:	2201      	movs	r2, #1
 80024b0:	f24c 3050 	movw	r0, #50000	; 0xc350
 80024b4:	7632      	strb	r2, [r6, #24]
 80024b6:	f7ff ffc9 	bl	800244c <FLASH_WaitForLastOperation>
 80024ba:	b9b8      	cbnz	r0, 80024ec <HAL_FLASH_Program+0x50>
 80024bc:	9b01      	ldr	r3, [sp, #4]
 80024be:	b9cf      	cbnz	r7, 80024f4 <HAL_FLASH_Program+0x58>
 80024c0:	4b18      	ldr	r3, [pc, #96]	; (8002524 <HAL_FLASH_Program+0x88>)
 80024c2:	691a      	ldr	r2, [r3, #16]
 80024c4:	f422 7240 	bic.w	r2, r2, #768	; 0x300
 80024c8:	611a      	str	r2, [r3, #16]
 80024ca:	691a      	ldr	r2, [r3, #16]
 80024cc:	611a      	str	r2, [r3, #16]
 80024ce:	691a      	ldr	r2, [r3, #16]
 80024d0:	b2e4      	uxtb	r4, r4
 80024d2:	f042 0201 	orr.w	r2, r2, #1
 80024d6:	611a      	str	r2, [r3, #16]
 80024d8:	702c      	strb	r4, [r5, #0]
 80024da:	f24c 3050 	movw	r0, #50000	; 0xc350
 80024de:	f7ff ffb5 	bl	800244c <FLASH_WaitForLastOperation>
 80024e2:	4a10      	ldr	r2, [pc, #64]	; (8002524 <HAL_FLASH_Program+0x88>)
 80024e4:	6913      	ldr	r3, [r2, #16]
 80024e6:	f023 0301 	bic.w	r3, r3, #1
 80024ea:	6113      	str	r3, [r2, #16]
 80024ec:	2300      	movs	r3, #0
 80024ee:	7633      	strb	r3, [r6, #24]
 80024f0:	b003      	add	sp, #12
 80024f2:	bdf0      	pop	{r4, r5, r6, r7, pc}
 80024f4:	2f01      	cmp	r7, #1
 80024f6:	d104      	bne.n	8002502 <HAL_FLASH_Program+0x66>
 80024f8:	b2a1      	uxth	r1, r4
 80024fa:	4628      	mov	r0, r5
 80024fc:	f7ff ff32 	bl	8002364 <FLASH_Program_HalfWord>
 8002500:	e7eb      	b.n	80024da <HAL_FLASH_Program+0x3e>
 8002502:	2f02      	cmp	r7, #2
 8002504:	d104      	bne.n	8002510 <HAL_FLASH_Program+0x74>
 8002506:	4621      	mov	r1, r4
 8002508:	4628      	mov	r0, r5
 800250a:	f7ff ff19 	bl	8002340 <FLASH_Program_Word>
 800250e:	e7e4      	b.n	80024da <HAL_FLASH_Program+0x3e>
 8002510:	4622      	mov	r2, r4
 8002512:	4628      	mov	r0, r5
 8002514:	f7ff fefe 	bl	8002314 <FLASH_Program_DoubleWord>
 8002518:	e7df      	b.n	80024da <HAL_FLASH_Program+0x3e>
 800251a:	2002      	movs	r0, #2
 800251c:	e7e8      	b.n	80024f0 <HAL_FLASH_Program+0x54>
 800251e:	bf00      	nop
 8002520:	200003cc 	.word	0x200003cc
 8002524:	40023c00 	.word	0x40023c00

08002528 <FLASH_MassErase.constprop.0>:
 8002528:	4b07      	ldr	r3, [pc, #28]	; (8002548 <FLASH_MassErase.constprop.0+0x20>)
 800252a:	691a      	ldr	r2, [r3, #16]
 800252c:	f422 7240 	bic.w	r2, r2, #768	; 0x300
 8002530:	611a      	str	r2, [r3, #16]
 8002532:	691a      	ldr	r2, [r3, #16]
 8002534:	f042 0204 	orr.w	r2, r2, #4
 8002538:	611a      	str	r2, [r3, #16]
 800253a:	691a      	ldr	r2, [r3, #16]
 800253c:	ea42 2000 	orr.w	r0, r2, r0, lsl #8
 8002540:	f440 3080 	orr.w	r0, r0, #65536	; 0x10000
 8002544:	6118      	str	r0, [r3, #16]
 8002546:	4770      	bx	lr
 8002548:	40023c00 	.word	0x40023c00

0800254c <FLASH_Erase_Sector>:
 800254c:	4b0d      	ldr	r3, [pc, #52]	; (8002584 <FLASH_Erase_Sector+0x38>)
 800254e:	691a      	ldr	r2, [r3, #16]
 8002550:	f422 7240 	bic.w	r2, r2, #768	; 0x300
 8002554:	611a      	str	r2, [r3, #16]
 8002556:	691a      	ldr	r2, [r3, #16]
 8002558:	2902      	cmp	r1, #2
 800255a:	bf94      	ite	ls
 800255c:	0209      	lslls	r1, r1, #8
 800255e:	f44f 7140 	movhi.w	r1, #768	; 0x300
 8002562:	430a      	orrs	r2, r1
 8002564:	611a      	str	r2, [r3, #16]
 8002566:	691a      	ldr	r2, [r3, #16]
 8002568:	f022 02f8 	bic.w	r2, r2, #248	; 0xf8
 800256c:	611a      	str	r2, [r3, #16]
 800256e:	691a      	ldr	r2, [r3, #16]
 8002570:	ea42 00c0 	orr.w	r0, r2, r0, lsl #3
 8002574:	f040 0002 	orr.w	r0, r0, #2
 8002578:	6118      	str	r0, [r3, #16]
 800257a:	691a      	ldr	r2, [r3, #16]
 800257c:	f442 3280 	orr.w	r2, r2, #65536	; 0x10000
 8002580:	611a      	str	r2, [r3, #16]
 8002582:	4770      	bx	lr
 8002584:	40023c00 	.word	0x40023c00

08002588 <FLASH_FlushCaches>:
 8002588:	4b14      	ldr	r3, [pc, #80]	; (80025dc <FLASH_FlushCaches+0x54>)
 800258a:	681a      	ldr	r2, [r3, #0]
 800258c:	0591      	lsls	r1, r2, #22
 800258e:	d50f      	bpl.n	80025b0 <FLASH_FlushCaches+0x28>
 8002590:	681a      	ldr	r2, [r3, #0]
 8002592:	f422 7200 	bic.w	r2, r2, #512	; 0x200
 8002596:	601a      	str	r2, [r3, #0]
 8002598:	681a      	ldr	r2, [r3, #0]
 800259a:	f442 6200 	orr.w	r2, r2, #2048	; 0x800
 800259e:	601a      	str	r2, [r3, #0]
 80025a0:	681a      	ldr	r2, [r3, #0]
 80025a2:	f422 6200 	bic.w	r2, r2, #2048	; 0x800
 80025a6:	601a      	str	r2, [r3, #0]
 80025a8:	681a      	ldr	r2, [r3, #0]
 80025aa:	f442 7200 	orr.w	r2, r2, #512	; 0x200
 80025ae:	601a      	str	r2, [r3, #0]
 80025b0:	4b0a      	ldr	r3, [pc, #40]	; (80025dc <FLASH_FlushCaches+0x54>)
 80025b2:	681a      	ldr	r2, [r3, #0]
 80025b4:	0552      	lsls	r2, r2, #21
 80025b6:	d50f      	bpl.n	80025d8 <FLASH_FlushCaches+0x50>
 80025b8:	681a      	ldr	r2, [r3, #0]
 80025ba:	f422 6280 	bic.w	r2, r2, #1024	; 0x400
 80025be:	601a      	str	r2, [r3, #0]
 80025c0:	681a      	ldr	r2, [r3, #0]
 80025c2:	f442 5280 	orr.w	r2, r2, #4096	; 0x1000
 80025c6:	601a      	str	r2, [r3, #0]
 80025c8:	681a      	ldr	r2, [r3, #0]
 80025ca:	f422 5280 	bic.w	r2, r2, #4096	; 0x1000
 80025ce:	601a      	str	r2, [r3, #0]
 80025d0:	681a      	ldr	r2, [r3, #0]
 80025d2:	f442 6280 	orr.w	r2, r2, #1024	; 0x400
 80025d6:	601a      	str	r2, [r3, #0]
 80025d8:	4770      	bx	lr
 80025da:	bf00      	nop
 80025dc:	40023c00 	.word	0x40023c00

080025e0 <HAL_FLASHEx_Erase>:
 80025e0:	e92d 43f8 	stmdb	sp!, {r3, r4, r5, r6, r7, r8, r9, lr}
 80025e4:	f8df 8094 	ldr.w	r8, [pc, #148]	; 800267c <HAL_FLASHEx_Erase+0x9c>
 80025e8:	f898 3018 	ldrb.w	r3, [r8, #24]
 80025ec:	2b01      	cmp	r3, #1
 80025ee:	4605      	mov	r5, r0
 80025f0:	460f      	mov	r7, r1
 80025f2:	d03f      	beq.n	8002674 <HAL_FLASHEx_Erase+0x94>
 80025f4:	2301      	movs	r3, #1
 80025f6:	f24c 3050 	movw	r0, #50000	; 0xc350
 80025fa:	f888 3018 	strb.w	r3, [r8, #24]
 80025fe:	f7ff ff25 	bl	800244c <FLASH_WaitForLastOperation>
 8002602:	4604      	mov	r4, r0
 8002604:	b9a0      	cbnz	r0, 8002630 <HAL_FLASHEx_Erase+0x50>
 8002606:	f04f 33ff 	mov.w	r3, #4294967295	; 0xffffffff
 800260a:	603b      	str	r3, [r7, #0]
 800260c:	682b      	ldr	r3, [r5, #0]
 800260e:	2b01      	cmp	r3, #1
 8002610:	d114      	bne.n	800263c <HAL_FLASHEx_Erase+0x5c>
 8002612:	7c28      	ldrb	r0, [r5, #16]
 8002614:	f7ff ff88 	bl	8002528 <FLASH_MassErase.constprop.0>
 8002618:	f24c 3050 	movw	r0, #50000	; 0xc350
 800261c:	f7ff ff16 	bl	800244c <FLASH_WaitForLastOperation>
 8002620:	4a15      	ldr	r2, [pc, #84]	; (8002678 <HAL_FLASHEx_Erase+0x98>)
 8002622:	6913      	ldr	r3, [r2, #16]
 8002624:	f023 0304 	bic.w	r3, r3, #4
 8002628:	4604      	mov	r4, r0
 800262a:	6113      	str	r3, [r2, #16]
 800262c:	f7ff ffac 	bl	8002588 <FLASH_FlushCaches>
 8002630:	2300      	movs	r3, #0
 8002632:	f888 3018 	strb.w	r3, [r8, #24]
 8002636:	4620      	mov	r0, r4
 8002638:	e8bd 83f8 	ldmia.w	sp!, {r3, r4, r5, r6, r7, r8, r9, pc}
 800263c:	68ae      	ldr	r6, [r5, #8]
 800263e:	f8df 9038 	ldr.w	r9, [pc, #56]	; 8002678 <HAL_FLASHEx_Erase+0x98>
 8002642:	e9d5 2302 	ldrd	r2, r3, [r5, #8]
 8002646:	4413      	add	r3, r2
 8002648:	42b3      	cmp	r3, r6
 800264a:	d9ef      	bls.n	800262c <HAL_FLASHEx_Erase+0x4c>
 800264c:	7c29      	ldrb	r1, [r5, #16]
 800264e:	4630      	mov	r0, r6
 8002650:	f7ff ff7c 	bl	800254c <FLASH_Erase_Sector>
 8002654:	f24c 3050 	movw	r0, #50000	; 0xc350
 8002658:	f7ff fef8 	bl	800244c <FLASH_WaitForLastOperation>
 800265c:	f8d9 3010 	ldr.w	r3, [r9, #16]
 8002660:	f023 03fa 	bic.w	r3, r3, #250	; 0xfa
 8002664:	f8c9 3010 	str.w	r3, [r9, #16]
 8002668:	b110      	cbz	r0, 8002670 <HAL_FLASHEx_Erase+0x90>
 800266a:	603e      	str	r6, [r7, #0]
 800266c:	4604      	mov	r4, r0
 800266e:	e7dd      	b.n	800262c <HAL_FLASHEx_Erase+0x4c>
 8002670:	3601      	adds	r6, #1
 8002672:	e7e6      	b.n	8002642 <HAL_FLASHEx_Erase+0x62>
 8002674:	2402      	movs	r4, #2
 8002676:	e7de      	b.n	8002636 <HAL_FLASHEx_Erase+0x56>
 8002678:	40023c00 	.word	0x40023c00
 800267c:	200003cc 	.word	0x200003cc

08002680 <HAL_GPIO_Init>:
 8002680:	e92d 4ff7 	stmdb	sp!, {r0, r1, r2, r4, r5, r6, r7, r8, r9, sl, fp, lr}
 8002684:	f8df 9184 	ldr.w	r9, [pc, #388]	; 800280c <HAL_GPIO_Init+0x18c>
 8002688:	4a5e      	ldr	r2, [pc, #376]	; (8002804 <HAL_GPIO_Init+0x184>)
 800268a:	2300      	movs	r3, #0
 800268c:	680d      	ldr	r5, [r1, #0]
 800268e:	2401      	movs	r4, #1
 8002690:	409c      	lsls	r4, r3
 8002692:	ea04 0c05 	and.w	ip, r4, r5
 8002696:	43ac      	bics	r4, r5
 8002698:	f040 80a5 	bne.w	80027e6 <HAL_GPIO_Init+0x166>
 800269c:	684d      	ldr	r5, [r1, #4]
 800269e:	f005 0403 	and.w	r4, r5, #3
 80026a2:	ea4f 0843 	mov.w	r8, r3, lsl #1
 80026a6:	2603      	movs	r6, #3
 80026a8:	1e67      	subs	r7, r4, #1
 80026aa:	fa06 f608 	lsl.w	r6, r6, r8
 80026ae:	2f01      	cmp	r7, #1
 80026b0:	ea6f 0606 	mvn.w	r6, r6
 80026b4:	d834      	bhi.n	8002720 <HAL_GPIO_Init+0xa0>
 80026b6:	6887      	ldr	r7, [r0, #8]
 80026b8:	ea07 0e06 	and.w	lr, r7, r6
 80026bc:	68cf      	ldr	r7, [r1, #12]
 80026be:	fa07 f708 	lsl.w	r7, r7, r8
 80026c2:	ea47 070e 	orr.w	r7, r7, lr
 80026c6:	6087      	str	r7, [r0, #8]
 80026c8:	6847      	ldr	r7, [r0, #4]
 80026ca:	ea27 0e0c 	bic.w	lr, r7, ip
 80026ce:	f3c5 1700 	ubfx	r7, r5, #4, #1
 80026d2:	409f      	lsls	r7, r3
 80026d4:	ea47 070e 	orr.w	r7, r7, lr
 80026d8:	6047      	str	r7, [r0, #4]
 80026da:	68c7      	ldr	r7, [r0, #12]
 80026dc:	ea07 0e06 	and.w	lr, r7, r6
 80026e0:	688f      	ldr	r7, [r1, #8]
 80026e2:	fa07 f708 	lsl.w	r7, r7, r8
 80026e6:	ea47 070e 	orr.w	r7, r7, lr
 80026ea:	2c02      	cmp	r4, #2
 80026ec:	60c7      	str	r7, [r0, #12]
 80026ee:	d119      	bne.n	8002724 <HAL_GPIO_Init+0xa4>
 80026f0:	ea4f 0ad3 	mov.w	sl, r3, lsr #3
 80026f4:	eb00 0a8a 	add.w	sl, r0, sl, lsl #2
 80026f8:	f003 0b07 	and.w	fp, r3, #7
 80026fc:	f8da 7020 	ldr.w	r7, [sl, #32]
 8002700:	ea4f 0b8b 	mov.w	fp, fp, lsl #2
 8002704:	f04f 0e0f 	mov.w	lr, #15
 8002708:	fa0e fe0b 	lsl.w	lr, lr, fp
 800270c:	ea27 0e0e 	bic.w	lr, r7, lr
 8002710:	690f      	ldr	r7, [r1, #16]
 8002712:	fa07 f70b 	lsl.w	r7, r7, fp
 8002716:	ea47 070e 	orr.w	r7, r7, lr
 800271a:	f8ca 7020 	str.w	r7, [sl, #32]
 800271e:	e001      	b.n	8002724 <HAL_GPIO_Init+0xa4>
 8002720:	2c03      	cmp	r4, #3
 8002722:	d1da      	bne.n	80026da <HAL_GPIO_Init+0x5a>
 8002724:	6807      	ldr	r7, [r0, #0]
 8002726:	fa04 f408 	lsl.w	r4, r4, r8
 800272a:	4037      	ands	r7, r6
 800272c:	433c      	orrs	r4, r7
 800272e:	f415 3f40 	tst.w	r5, #196608	; 0x30000
 8002732:	6004      	str	r4, [r0, #0]
 8002734:	d057      	beq.n	80027e6 <HAL_GPIO_Init+0x166>
 8002736:	f04f 0a00 	mov.w	sl, #0
 800273a:	f8cd a004 	str.w	sl, [sp, #4]
 800273e:	f8d9 6044 	ldr.w	r6, [r9, #68]	; 0x44
 8002742:	4c31      	ldr	r4, [pc, #196]	; (8002808 <HAL_GPIO_Init+0x188>)
 8002744:	f446 4680 	orr.w	r6, r6, #16384	; 0x4000
 8002748:	f8c9 6044 	str.w	r6, [r9, #68]	; 0x44
 800274c:	f8d9 6044 	ldr.w	r6, [r9, #68]	; 0x44
 8002750:	f406 4680 	and.w	r6, r6, #16384	; 0x4000
 8002754:	9601      	str	r6, [sp, #4]
 8002756:	9e01      	ldr	r6, [sp, #4]
 8002758:	f023 0603 	bic.w	r6, r3, #3
 800275c:	f106 4680 	add.w	r6, r6, #1073741824	; 0x40000000
 8002760:	f506 369c 	add.w	r6, r6, #79872	; 0x13800
 8002764:	f003 0e03 	and.w	lr, r3, #3
 8002768:	f8d6 8008 	ldr.w	r8, [r6, #8]
 800276c:	ea4f 0e8e 	mov.w	lr, lr, lsl #2
 8002770:	270f      	movs	r7, #15
 8002772:	fa07 f70e 	lsl.w	r7, r7, lr
 8002776:	42a0      	cmp	r0, r4
 8002778:	ea28 0707 	bic.w	r7, r8, r7
 800277c:	d03a      	beq.n	80027f4 <HAL_GPIO_Init+0x174>
 800277e:	f504 6480 	add.w	r4, r4, #1024	; 0x400
 8002782:	42a0      	cmp	r0, r4
 8002784:	d038      	beq.n	80027f8 <HAL_GPIO_Init+0x178>
 8002786:	f504 6480 	add.w	r4, r4, #1024	; 0x400
 800278a:	42a0      	cmp	r0, r4
 800278c:	d036      	beq.n	80027fc <HAL_GPIO_Init+0x17c>
 800278e:	f504 6480 	add.w	r4, r4, #1024	; 0x400
 8002792:	42a0      	cmp	r0, r4
 8002794:	d034      	beq.n	8002800 <HAL_GPIO_Init+0x180>
 8002796:	f504 6480 	add.w	r4, r4, #1024	; 0x400
 800279a:	42a0      	cmp	r0, r4
 800279c:	bf0c      	ite	eq
 800279e:	2404      	moveq	r4, #4
 80027a0:	2407      	movne	r4, #7
 80027a2:	fa04 f40e 	lsl.w	r4, r4, lr
 80027a6:	433c      	orrs	r4, r7
 80027a8:	60b4      	str	r4, [r6, #8]
 80027aa:	6894      	ldr	r4, [r2, #8]
 80027ac:	ea6f 060c 	mvn.w	r6, ip
 80027b0:	02ef      	lsls	r7, r5, #11
 80027b2:	bf54      	ite	pl
 80027b4:	4034      	andpl	r4, r6
 80027b6:	ea4c 0404 	orrmi.w	r4, ip, r4
 80027ba:	6094      	str	r4, [r2, #8]
 80027bc:	68d4      	ldr	r4, [r2, #12]
 80027be:	02af      	lsls	r7, r5, #10
 80027c0:	bf54      	ite	pl
 80027c2:	4034      	andpl	r4, r6
 80027c4:	ea4c 0404 	orrmi.w	r4, ip, r4
 80027c8:	60d4      	str	r4, [r2, #12]
 80027ca:	6854      	ldr	r4, [r2, #4]
 80027cc:	03af      	lsls	r7, r5, #14
 80027ce:	bf54      	ite	pl
 80027d0:	4034      	andpl	r4, r6
 80027d2:	ea4c 0404 	orrmi.w	r4, ip, r4
 80027d6:	6054      	str	r4, [r2, #4]
 80027d8:	6814      	ldr	r4, [r2, #0]
 80027da:	03ed      	lsls	r5, r5, #15
 80027dc:	bf54      	ite	pl
 80027de:	4034      	andpl	r4, r6
 80027e0:	ea4c 0404 	orrmi.w	r4, ip, r4
 80027e4:	6014      	str	r4, [r2, #0]
 80027e6:	3301      	adds	r3, #1
 80027e8:	2b10      	cmp	r3, #16
 80027ea:	f47f af4f 	bne.w	800268c <HAL_GPIO_Init+0xc>
 80027ee:	b003      	add	sp, #12
 80027f0:	e8bd 8ff0 	ldmia.w	sp!, {r4, r5, r6, r7, r8, r9, sl, fp, pc}
 80027f4:	4654      	mov	r4, sl
 80027f6:	e7d4      	b.n	80027a2 <HAL_GPIO_Init+0x122>
 80027f8:	2401      	movs	r4, #1
 80027fa:	e7d2      	b.n	80027a2 <HAL_GPIO_Init+0x122>
 80027fc:	2402      	movs	r4, #2
 80027fe:	e7d0      	b.n	80027a2 <HAL_GPIO_Init+0x122>
 8002800:	2403      	movs	r4, #3
 8002802:	e7ce      	b.n	80027a2 <HAL_GPIO_Init+0x122>
 8002804:	40013c00 	.word	0x40013c00
 8002808:	40020000 	.word	0x40020000
 800280c:	40023800 	.word	0x40023800

08002810 <HAL_GPIO_WritePin>:
 8002810:	b10a      	cbz	r2, 8002816 <HAL_GPIO_WritePin+0x6>
 8002812:	6181      	str	r1, [r0, #24]
 8002814:	4770      	bx	lr
 8002816:	0409      	lsls	r1, r1, #16
 8002818:	e7fb      	b.n	8002812 <HAL_GPIO_WritePin+0x2>

0800281a <HAL_GPIO_TogglePin>:
 800281a:	6943      	ldr	r3, [r0, #20]
 800281c:	ea01 0203 	and.w	r2, r1, r3
 8002820:	ea21 0103 	bic.w	r1, r1, r3
 8002824:	ea41 4102 	orr.w	r1, r1, r2, lsl #16
 8002828:	6181      	str	r1, [r0, #24]
 800282a:	4770      	bx	lr

0800282c <HAL_RCC_OscConfig>:
 800282c:	e92d 41f3 	stmdb	sp!, {r0, r1, r4, r5, r6, r7, r8, lr}
 8002830:	4604      	mov	r4, r0
 8002832:	b340      	cbz	r0, 8002886 <HAL_RCC_OscConfig+0x5a>
 8002834:	6803      	ldr	r3, [r0, #0]
 8002836:	07dd      	lsls	r5, r3, #31
 8002838:	d410      	bmi.n	800285c <HAL_RCC_OscConfig+0x30>
 800283a:	6823      	ldr	r3, [r4, #0]
 800283c:	0798      	lsls	r0, r3, #30
 800283e:	d45b      	bmi.n	80028f8 <HAL_RCC_OscConfig+0xcc>
 8002840:	6823      	ldr	r3, [r4, #0]
 8002842:	071a      	lsls	r2, r3, #28
 8002844:	f100 809d 	bmi.w	8002982 <HAL_RCC_OscConfig+0x156>
 8002848:	6823      	ldr	r3, [r4, #0]
 800284a:	075b      	lsls	r3, r3, #29
 800284c:	f100 80bd 	bmi.w	80029ca <HAL_RCC_OscConfig+0x19e>
 8002850:	69a0      	ldr	r0, [r4, #24]
 8002852:	2800      	cmp	r0, #0
 8002854:	f040 8124 	bne.w	8002aa0 <HAL_RCC_OscConfig+0x274>
 8002858:	2000      	movs	r0, #0
 800285a:	e02c      	b.n	80028b6 <HAL_RCC_OscConfig+0x8a>
 800285c:	4b8d      	ldr	r3, [pc, #564]	; (8002a94 <HAL_RCC_OscConfig+0x268>)
 800285e:	689a      	ldr	r2, [r3, #8]
 8002860:	f002 020c 	and.w	r2, r2, #12
 8002864:	2a04      	cmp	r2, #4
 8002866:	d007      	beq.n	8002878 <HAL_RCC_OscConfig+0x4c>
 8002868:	689a      	ldr	r2, [r3, #8]
 800286a:	f002 020c 	and.w	r2, r2, #12
 800286e:	2a08      	cmp	r2, #8
 8002870:	d10b      	bne.n	800288a <HAL_RCC_OscConfig+0x5e>
 8002872:	685b      	ldr	r3, [r3, #4]
 8002874:	0259      	lsls	r1, r3, #9
 8002876:	d508      	bpl.n	800288a <HAL_RCC_OscConfig+0x5e>
 8002878:	4b86      	ldr	r3, [pc, #536]	; (8002a94 <HAL_RCC_OscConfig+0x268>)
 800287a:	681b      	ldr	r3, [r3, #0]
 800287c:	039a      	lsls	r2, r3, #14
 800287e:	d5dc      	bpl.n	800283a <HAL_RCC_OscConfig+0xe>
 8002880:	6863      	ldr	r3, [r4, #4]
 8002882:	2b00      	cmp	r3, #0
 8002884:	d1d9      	bne.n	800283a <HAL_RCC_OscConfig+0xe>
 8002886:	2001      	movs	r0, #1
 8002888:	e015      	b.n	80028b6 <HAL_RCC_OscConfig+0x8a>
 800288a:	6863      	ldr	r3, [r4, #4]
 800288c:	4d81      	ldr	r5, [pc, #516]	; (8002a94 <HAL_RCC_OscConfig+0x268>)
 800288e:	f5b3 3f80 	cmp.w	r3, #65536	; 0x10000
 8002892:	d113      	bne.n	80028bc <HAL_RCC_OscConfig+0x90>
 8002894:	682b      	ldr	r3, [r5, #0]
 8002896:	f443 3380 	orr.w	r3, r3, #65536	; 0x10000
 800289a:	602b      	str	r3, [r5, #0]
 800289c:	f7ff fcc8 	bl	8002230 <HAL_GetTick>
 80028a0:	4e7c      	ldr	r6, [pc, #496]	; (8002a94 <HAL_RCC_OscConfig+0x268>)
 80028a2:	4605      	mov	r5, r0
 80028a4:	6833      	ldr	r3, [r6, #0]
 80028a6:	039b      	lsls	r3, r3, #14
 80028a8:	d4c7      	bmi.n	800283a <HAL_RCC_OscConfig+0xe>
 80028aa:	f7ff fcc1 	bl	8002230 <HAL_GetTick>
 80028ae:	1b40      	subs	r0, r0, r5
 80028b0:	2864      	cmp	r0, #100	; 0x64
 80028b2:	d9f7      	bls.n	80028a4 <HAL_RCC_OscConfig+0x78>
 80028b4:	2003      	movs	r0, #3
 80028b6:	b002      	add	sp, #8
 80028b8:	e8bd 81f0 	ldmia.w	sp!, {r4, r5, r6, r7, r8, pc}
 80028bc:	f5b3 2fa0 	cmp.w	r3, #327680	; 0x50000
 80028c0:	d104      	bne.n	80028cc <HAL_RCC_OscConfig+0xa0>
 80028c2:	682b      	ldr	r3, [r5, #0]
 80028c4:	f443 2380 	orr.w	r3, r3, #262144	; 0x40000
 80028c8:	602b      	str	r3, [r5, #0]
 80028ca:	e7e3      	b.n	8002894 <HAL_RCC_OscConfig+0x68>
 80028cc:	682a      	ldr	r2, [r5, #0]
 80028ce:	f422 3280 	bic.w	r2, r2, #65536	; 0x10000
 80028d2:	602a      	str	r2, [r5, #0]
 80028d4:	682a      	ldr	r2, [r5, #0]
 80028d6:	f422 2280 	bic.w	r2, r2, #262144	; 0x40000
 80028da:	602a      	str	r2, [r5, #0]
 80028dc:	2b00      	cmp	r3, #0
 80028de:	d1dd      	bne.n	800289c <HAL_RCC_OscConfig+0x70>
 80028e0:	f7ff fca6 	bl	8002230 <HAL_GetTick>
 80028e4:	4606      	mov	r6, r0
 80028e6:	682b      	ldr	r3, [r5, #0]
 80028e8:	039f      	lsls	r7, r3, #14
 80028ea:	d5a6      	bpl.n	800283a <HAL_RCC_OscConfig+0xe>
 80028ec:	f7ff fca0 	bl	8002230 <HAL_GetTick>
 80028f0:	1b80      	subs	r0, r0, r6
 80028f2:	2864      	cmp	r0, #100	; 0x64
 80028f4:	d9f7      	bls.n	80028e6 <HAL_RCC_OscConfig+0xba>
 80028f6:	e7dd      	b.n	80028b4 <HAL_RCC_OscConfig+0x88>
 80028f8:	4b66      	ldr	r3, [pc, #408]	; (8002a94 <HAL_RCC_OscConfig+0x268>)
 80028fa:	689a      	ldr	r2, [r3, #8]
 80028fc:	f012 0f0c 	tst.w	r2, #12
 8002900:	d007      	beq.n	8002912 <HAL_RCC_OscConfig+0xe6>
 8002902:	689a      	ldr	r2, [r3, #8]
 8002904:	f002 020c 	and.w	r2, r2, #12
 8002908:	2a08      	cmp	r2, #8
 800290a:	d111      	bne.n	8002930 <HAL_RCC_OscConfig+0x104>
 800290c:	685b      	ldr	r3, [r3, #4]
 800290e:	025e      	lsls	r6, r3, #9
 8002910:	d40e      	bmi.n	8002930 <HAL_RCC_OscConfig+0x104>
 8002912:	4a60      	ldr	r2, [pc, #384]	; (8002a94 <HAL_RCC_OscConfig+0x268>)
 8002914:	6813      	ldr	r3, [r2, #0]
 8002916:	079d      	lsls	r5, r3, #30
 8002918:	d502      	bpl.n	8002920 <HAL_RCC_OscConfig+0xf4>
 800291a:	68e3      	ldr	r3, [r4, #12]
 800291c:	2b01      	cmp	r3, #1
 800291e:	d1b2      	bne.n	8002886 <HAL_RCC_OscConfig+0x5a>
 8002920:	6813      	ldr	r3, [r2, #0]
 8002922:	6921      	ldr	r1, [r4, #16]
 8002924:	f023 03f8 	bic.w	r3, r3, #248	; 0xf8
 8002928:	ea43 03c1 	orr.w	r3, r3, r1, lsl #3
 800292c:	6013      	str	r3, [r2, #0]
 800292e:	e787      	b.n	8002840 <HAL_RCC_OscConfig+0x14>
 8002930:	68e2      	ldr	r2, [r4, #12]
 8002932:	4b59      	ldr	r3, [pc, #356]	; (8002a98 <HAL_RCC_OscConfig+0x26c>)
 8002934:	b1b2      	cbz	r2, 8002964 <HAL_RCC_OscConfig+0x138>
 8002936:	2201      	movs	r2, #1
 8002938:	601a      	str	r2, [r3, #0]
 800293a:	f7ff fc79 	bl	8002230 <HAL_GetTick>
 800293e:	4d55      	ldr	r5, [pc, #340]	; (8002a94 <HAL_RCC_OscConfig+0x268>)
 8002940:	4606      	mov	r6, r0
 8002942:	682b      	ldr	r3, [r5, #0]
 8002944:	0798      	lsls	r0, r3, #30
 8002946:	d507      	bpl.n	8002958 <HAL_RCC_OscConfig+0x12c>
 8002948:	682b      	ldr	r3, [r5, #0]
 800294a:	6922      	ldr	r2, [r4, #16]
 800294c:	f023 03f8 	bic.w	r3, r3, #248	; 0xf8
 8002950:	ea43 03c2 	orr.w	r3, r3, r2, lsl #3
 8002954:	602b      	str	r3, [r5, #0]
 8002956:	e773      	b.n	8002840 <HAL_RCC_OscConfig+0x14>
 8002958:	f7ff fc6a 	bl	8002230 <HAL_GetTick>
 800295c:	1b80      	subs	r0, r0, r6
 800295e:	2802      	cmp	r0, #2
 8002960:	d9ef      	bls.n	8002942 <HAL_RCC_OscConfig+0x116>
 8002962:	e7a7      	b.n	80028b4 <HAL_RCC_OscConfig+0x88>
 8002964:	601a      	str	r2, [r3, #0]
 8002966:	f7ff fc63 	bl	8002230 <HAL_GetTick>
 800296a:	4e4a      	ldr	r6, [pc, #296]	; (8002a94 <HAL_RCC_OscConfig+0x268>)
 800296c:	4605      	mov	r5, r0
 800296e:	6833      	ldr	r3, [r6, #0]
 8002970:	0799      	lsls	r1, r3, #30
 8002972:	f57f af65 	bpl.w	8002840 <HAL_RCC_OscConfig+0x14>
 8002976:	f7ff fc5b 	bl	8002230 <HAL_GetTick>
 800297a:	1b40      	subs	r0, r0, r5
 800297c:	2802      	cmp	r0, #2
 800297e:	d9f6      	bls.n	800296e <HAL_RCC_OscConfig+0x142>
 8002980:	e798      	b.n	80028b4 <HAL_RCC_OscConfig+0x88>
 8002982:	6962      	ldr	r2, [r4, #20]
 8002984:	4b44      	ldr	r3, [pc, #272]	; (8002a98 <HAL_RCC_OscConfig+0x26c>)
 8002986:	b182      	cbz	r2, 80029aa <HAL_RCC_OscConfig+0x17e>
 8002988:	2201      	movs	r2, #1
 800298a:	f8c3 2e80 	str.w	r2, [r3, #3712]	; 0xe80
 800298e:	f7ff fc4f 	bl	8002230 <HAL_GetTick>
 8002992:	4e40      	ldr	r6, [pc, #256]	; (8002a94 <HAL_RCC_OscConfig+0x268>)
 8002994:	4605      	mov	r5, r0
 8002996:	6f73      	ldr	r3, [r6, #116]	; 0x74
 8002998:	079f      	lsls	r7, r3, #30
 800299a:	f53f af55 	bmi.w	8002848 <HAL_RCC_OscConfig+0x1c>
 800299e:	f7ff fc47 	bl	8002230 <HAL_GetTick>
 80029a2:	1b40      	subs	r0, r0, r5
 80029a4:	2802      	cmp	r0, #2
 80029a6:	d9f6      	bls.n	8002996 <HAL_RCC_OscConfig+0x16a>
 80029a8:	e784      	b.n	80028b4 <HAL_RCC_OscConfig+0x88>
 80029aa:	f8c3 2e80 	str.w	r2, [r3, #3712]	; 0xe80
 80029ae:	f7ff fc3f 	bl	8002230 <HAL_GetTick>
 80029b2:	4e38      	ldr	r6, [pc, #224]	; (8002a94 <HAL_RCC_OscConfig+0x268>)
 80029b4:	4605      	mov	r5, r0
 80029b6:	6f73      	ldr	r3, [r6, #116]	; 0x74
 80029b8:	0798      	lsls	r0, r3, #30
 80029ba:	f57f af45 	bpl.w	8002848 <HAL_RCC_OscConfig+0x1c>
 80029be:	f7ff fc37 	bl	8002230 <HAL_GetTick>
 80029c2:	1b40      	subs	r0, r0, r5
 80029c4:	2802      	cmp	r0, #2
 80029c6:	d9f6      	bls.n	80029b6 <HAL_RCC_OscConfig+0x18a>
 80029c8:	e774      	b.n	80028b4 <HAL_RCC_OscConfig+0x88>
 80029ca:	4b32      	ldr	r3, [pc, #200]	; (8002a94 <HAL_RCC_OscConfig+0x268>)
 80029cc:	6c1a      	ldr	r2, [r3, #64]	; 0x40
 80029ce:	f012 5280 	ands.w	r2, r2, #268435456	; 0x10000000
 80029d2:	d128      	bne.n	8002a26 <HAL_RCC_OscConfig+0x1fa>
 80029d4:	9201      	str	r2, [sp, #4]
 80029d6:	6c1a      	ldr	r2, [r3, #64]	; 0x40
 80029d8:	f042 5280 	orr.w	r2, r2, #268435456	; 0x10000000
 80029dc:	641a      	str	r2, [r3, #64]	; 0x40
 80029de:	6c1b      	ldr	r3, [r3, #64]	; 0x40
 80029e0:	f003 5380 	and.w	r3, r3, #268435456	; 0x10000000
 80029e4:	9301      	str	r3, [sp, #4]
 80029e6:	9b01      	ldr	r3, [sp, #4]
 80029e8:	2701      	movs	r7, #1
 80029ea:	4d2c      	ldr	r5, [pc, #176]	; (8002a9c <HAL_RCC_OscConfig+0x270>)
 80029ec:	682b      	ldr	r3, [r5, #0]
 80029ee:	05d9      	lsls	r1, r3, #23
 80029f0:	d51b      	bpl.n	8002a2a <HAL_RCC_OscConfig+0x1fe>
 80029f2:	68a3      	ldr	r3, [r4, #8]
 80029f4:	4d27      	ldr	r5, [pc, #156]	; (8002a94 <HAL_RCC_OscConfig+0x268>)
 80029f6:	2b01      	cmp	r3, #1
 80029f8:	d127      	bne.n	8002a4a <HAL_RCC_OscConfig+0x21e>
 80029fa:	6f2b      	ldr	r3, [r5, #112]	; 0x70
 80029fc:	f043 0301 	orr.w	r3, r3, #1
 8002a00:	672b      	str	r3, [r5, #112]	; 0x70
 8002a02:	f7ff fc15 	bl	8002230 <HAL_GetTick>
 8002a06:	4e23      	ldr	r6, [pc, #140]	; (8002a94 <HAL_RCC_OscConfig+0x268>)
 8002a08:	4605      	mov	r5, r0
 8002a0a:	f241 3888 	movw	r8, #5000	; 0x1388
 8002a0e:	6f33      	ldr	r3, [r6, #112]	; 0x70
 8002a10:	079b      	lsls	r3, r3, #30
 8002a12:	d539      	bpl.n	8002a88 <HAL_RCC_OscConfig+0x25c>
 8002a14:	2f00      	cmp	r7, #0
 8002a16:	f43f af1b 	beq.w	8002850 <HAL_RCC_OscConfig+0x24>
 8002a1a:	4a1e      	ldr	r2, [pc, #120]	; (8002a94 <HAL_RCC_OscConfig+0x268>)
 8002a1c:	6c13      	ldr	r3, [r2, #64]	; 0x40
 8002a1e:	f023 5380 	bic.w	r3, r3, #268435456	; 0x10000000
 8002a22:	6413      	str	r3, [r2, #64]	; 0x40
 8002a24:	e714      	b.n	8002850 <HAL_RCC_OscConfig+0x24>
 8002a26:	2700      	movs	r7, #0
 8002a28:	e7df      	b.n	80029ea <HAL_RCC_OscConfig+0x1be>
 8002a2a:	682b      	ldr	r3, [r5, #0]
 8002a2c:	f443 7380 	orr.w	r3, r3, #256	; 0x100
 8002a30:	602b      	str	r3, [r5, #0]
 8002a32:	f7ff fbfd 	bl	8002230 <HAL_GetTick>
 8002a36:	4606      	mov	r6, r0
 8002a38:	682b      	ldr	r3, [r5, #0]
 8002a3a:	05da      	lsls	r2, r3, #23
 8002a3c:	d4d9      	bmi.n	80029f2 <HAL_RCC_OscConfig+0x1c6>
 8002a3e:	f7ff fbf7 	bl	8002230 <HAL_GetTick>
 8002a42:	1b80      	subs	r0, r0, r6
 8002a44:	2802      	cmp	r0, #2
 8002a46:	d9f7      	bls.n	8002a38 <HAL_RCC_OscConfig+0x20c>
 8002a48:	e734      	b.n	80028b4 <HAL_RCC_OscConfig+0x88>
 8002a4a:	2b05      	cmp	r3, #5
 8002a4c:	d104      	bne.n	8002a58 <HAL_RCC_OscConfig+0x22c>
 8002a4e:	6f2b      	ldr	r3, [r5, #112]	; 0x70
 8002a50:	f043 0304 	orr.w	r3, r3, #4
 8002a54:	672b      	str	r3, [r5, #112]	; 0x70
 8002a56:	e7d0      	b.n	80029fa <HAL_RCC_OscConfig+0x1ce>
 8002a58:	6f2a      	ldr	r2, [r5, #112]	; 0x70
 8002a5a:	f022 0201 	bic.w	r2, r2, #1
 8002a5e:	672a      	str	r2, [r5, #112]	; 0x70
 8002a60:	6f2a      	ldr	r2, [r5, #112]	; 0x70
 8002a62:	f022 0204 	bic.w	r2, r2, #4
 8002a66:	672a      	str	r2, [r5, #112]	; 0x70
 8002a68:	2b00      	cmp	r3, #0
 8002a6a:	d1ca      	bne.n	8002a02 <HAL_RCC_OscConfig+0x1d6>
 8002a6c:	f7ff fbe0 	bl	8002230 <HAL_GetTick>
 8002a70:	f241 3888 	movw	r8, #5000	; 0x1388
 8002a74:	4606      	mov	r6, r0
 8002a76:	6f2b      	ldr	r3, [r5, #112]	; 0x70
 8002a78:	0798      	lsls	r0, r3, #30
 8002a7a:	d5cb      	bpl.n	8002a14 <HAL_RCC_OscConfig+0x1e8>
 8002a7c:	f7ff fbd8 	bl	8002230 <HAL_GetTick>
 8002a80:	1b80      	subs	r0, r0, r6
 8002a82:	4540      	cmp	r0, r8
 8002a84:	d9f7      	bls.n	8002a76 <HAL_RCC_OscConfig+0x24a>
 8002a86:	e715      	b.n	80028b4 <HAL_RCC_OscConfig+0x88>
 8002a88:	f7ff fbd2 	bl	8002230 <HAL_GetTick>
 8002a8c:	1b40      	subs	r0, r0, r5
 8002a8e:	4540      	cmp	r0, r8
 8002a90:	d9bd      	bls.n	8002a0e <HAL_RCC_OscConfig+0x1e2>
 8002a92:	e70f      	b.n	80028b4 <HAL_RCC_OscConfig+0x88>
 8002a94:	40023800 	.word	0x40023800
 8002a98:	42470000 	.word	0x42470000
 8002a9c:	40007000 	.word	0x40007000
 8002aa0:	4d36      	ldr	r5, [pc, #216]	; (8002b7c <HAL_RCC_OscConfig+0x350>)
 8002aa2:	68ab      	ldr	r3, [r5, #8]
 8002aa4:	f003 030c 	and.w	r3, r3, #12
 8002aa8:	2b08      	cmp	r3, #8
 8002aaa:	d03d      	beq.n	8002b28 <HAL_RCC_OscConfig+0x2fc>
 8002aac:	4b34      	ldr	r3, [pc, #208]	; (8002b80 <HAL_RCC_OscConfig+0x354>)
 8002aae:	2200      	movs	r2, #0
 8002ab0:	2802      	cmp	r0, #2
 8002ab2:	661a      	str	r2, [r3, #96]	; 0x60
 8002ab4:	d12b      	bne.n	8002b0e <HAL_RCC_OscConfig+0x2e2>
 8002ab6:	f7ff fbbb 	bl	8002230 <HAL_GetTick>
 8002aba:	4606      	mov	r6, r0
 8002abc:	682b      	ldr	r3, [r5, #0]
 8002abe:	0199      	lsls	r1, r3, #6
 8002ac0:	d41f      	bmi.n	8002b02 <HAL_RCC_OscConfig+0x2d6>
 8002ac2:	e9d4 3207 	ldrd	r3, r2, [r4, #28]
 8002ac6:	4313      	orrs	r3, r2
 8002ac8:	6a62      	ldr	r2, [r4, #36]	; 0x24
 8002aca:	ea43 1382 	orr.w	r3, r3, r2, lsl #6
 8002ace:	6ae2      	ldr	r2, [r4, #44]	; 0x2c
 8002ad0:	ea43 6302 	orr.w	r3, r3, r2, lsl #24
 8002ad4:	6aa2      	ldr	r2, [r4, #40]	; 0x28
 8002ad6:	0852      	lsrs	r2, r2, #1
 8002ad8:	3a01      	subs	r2, #1
 8002ada:	ea43 4302 	orr.w	r3, r3, r2, lsl #16
 8002ade:	606b      	str	r3, [r5, #4]
 8002ae0:	4b27      	ldr	r3, [pc, #156]	; (8002b80 <HAL_RCC_OscConfig+0x354>)
 8002ae2:	4d26      	ldr	r5, [pc, #152]	; (8002b7c <HAL_RCC_OscConfig+0x350>)
 8002ae4:	2201      	movs	r2, #1
 8002ae6:	661a      	str	r2, [r3, #96]	; 0x60
 8002ae8:	f7ff fba2 	bl	8002230 <HAL_GetTick>
 8002aec:	4604      	mov	r4, r0
 8002aee:	682b      	ldr	r3, [r5, #0]
 8002af0:	019a      	lsls	r2, r3, #6
 8002af2:	f53f aeb1 	bmi.w	8002858 <HAL_RCC_OscConfig+0x2c>
 8002af6:	f7ff fb9b 	bl	8002230 <HAL_GetTick>
 8002afa:	1b00      	subs	r0, r0, r4
 8002afc:	2802      	cmp	r0, #2
 8002afe:	d9f6      	bls.n	8002aee <HAL_RCC_OscConfig+0x2c2>
 8002b00:	e6d8      	b.n	80028b4 <HAL_RCC_OscConfig+0x88>
 8002b02:	f7ff fb95 	bl	8002230 <HAL_GetTick>
 8002b06:	1b80      	subs	r0, r0, r6
 8002b08:	2802      	cmp	r0, #2
 8002b0a:	d9d7      	bls.n	8002abc <HAL_RCC_OscConfig+0x290>
 8002b0c:	e6d2      	b.n	80028b4 <HAL_RCC_OscConfig+0x88>
 8002b0e:	f7ff fb8f 	bl	8002230 <HAL_GetTick>
 8002b12:	4604      	mov	r4, r0
 8002b14:	682b      	ldr	r3, [r5, #0]
 8002b16:	019b      	lsls	r3, r3, #6
 8002b18:	f57f ae9e 	bpl.w	8002858 <HAL_RCC_OscConfig+0x2c>
 8002b1c:	f7ff fb88 	bl	8002230 <HAL_GetTick>
 8002b20:	1b00      	subs	r0, r0, r4
 8002b22:	2802      	cmp	r0, #2
 8002b24:	d9f6      	bls.n	8002b14 <HAL_RCC_OscConfig+0x2e8>
 8002b26:	e6c5      	b.n	80028b4 <HAL_RCC_OscConfig+0x88>
 8002b28:	2801      	cmp	r0, #1
 8002b2a:	f43f aec4 	beq.w	80028b6 <HAL_RCC_OscConfig+0x8a>
 8002b2e:	686b      	ldr	r3, [r5, #4]
 8002b30:	69e2      	ldr	r2, [r4, #28]
 8002b32:	f403 0180 	and.w	r1, r3, #4194304	; 0x400000
 8002b36:	4291      	cmp	r1, r2
 8002b38:	f47f aea5 	bne.w	8002886 <HAL_RCC_OscConfig+0x5a>
 8002b3c:	6a21      	ldr	r1, [r4, #32]
 8002b3e:	f003 023f 	and.w	r2, r3, #63	; 0x3f
 8002b42:	428a      	cmp	r2, r1
 8002b44:	f47f ae9f 	bne.w	8002886 <HAL_RCC_OscConfig+0x5a>
 8002b48:	6a61      	ldr	r1, [r4, #36]	; 0x24
 8002b4a:	f647 72c0 	movw	r2, #32704	; 0x7fc0
 8002b4e:	401a      	ands	r2, r3
 8002b50:	ebb2 1f81 	cmp.w	r2, r1, lsl #6
 8002b54:	f47f ae97 	bne.w	8002886 <HAL_RCC_OscConfig+0x5a>
 8002b58:	6aa2      	ldr	r2, [r4, #40]	; 0x28
 8002b5a:	0852      	lsrs	r2, r2, #1
 8002b5c:	f403 3140 	and.w	r1, r3, #196608	; 0x30000
 8002b60:	3a01      	subs	r2, #1
 8002b62:	ebb1 4f02 	cmp.w	r1, r2, lsl #16
 8002b66:	f47f ae8e 	bne.w	8002886 <HAL_RCC_OscConfig+0x5a>
 8002b6a:	6ae2      	ldr	r2, [r4, #44]	; 0x2c
 8002b6c:	f003 6370 	and.w	r3, r3, #251658240	; 0xf000000
 8002b70:	ebb3 6f02 	cmp.w	r3, r2, lsl #24
 8002b74:	f43f ae70 	beq.w	8002858 <HAL_RCC_OscConfig+0x2c>
 8002b78:	e685      	b.n	8002886 <HAL_RCC_OscConfig+0x5a>
 8002b7a:	bf00      	nop
 8002b7c:	40023800 	.word	0x40023800
 8002b80:	42470000 	.word	0x42470000

08002b84 <HAL_RCC_GetSysClockFreq>:
 8002b84:	4913      	ldr	r1, [pc, #76]	; (8002bd4 <HAL_RCC_GetSysClockFreq+0x50>)
 8002b86:	b508      	push	{r3, lr}
 8002b88:	688b      	ldr	r3, [r1, #8]
 8002b8a:	f003 030c 	and.w	r3, r3, #12
 8002b8e:	2b04      	cmp	r3, #4
 8002b90:	d01c      	beq.n	8002bcc <HAL_RCC_GetSysClockFreq+0x48>
 8002b92:	2b08      	cmp	r3, #8
 8002b94:	d11c      	bne.n	8002bd0 <HAL_RCC_GetSysClockFreq+0x4c>
 8002b96:	684a      	ldr	r2, [r1, #4]
 8002b98:	684b      	ldr	r3, [r1, #4]
 8002b9a:	6849      	ldr	r1, [r1, #4]
 8002b9c:	f413 0380 	ands.w	r3, r3, #4194304	; 0x400000
 8002ba0:	bf14      	ite	ne
 8002ba2:	480d      	ldrne	r0, [pc, #52]	; (8002bd8 <HAL_RCC_GetSysClockFreq+0x54>)
 8002ba4:	480d      	ldreq	r0, [pc, #52]	; (8002bdc <HAL_RCC_GetSysClockFreq+0x58>)
 8002ba6:	f3c1 1188 	ubfx	r1, r1, #6, #9
 8002baa:	bf18      	it	ne
 8002bac:	2300      	movne	r3, #0
 8002bae:	f002 023f 	and.w	r2, r2, #63	; 0x3f
 8002bb2:	fba1 0100 	umull	r0, r1, r1, r0
 8002bb6:	f7fd ff05 	bl	80009c4 <__aeabi_uldivmod>
 8002bba:	4b06      	ldr	r3, [pc, #24]	; (8002bd4 <HAL_RCC_GetSysClockFreq+0x50>)
 8002bbc:	685b      	ldr	r3, [r3, #4]
 8002bbe:	f3c3 4301 	ubfx	r3, r3, #16, #2
 8002bc2:	3301      	adds	r3, #1
 8002bc4:	005b      	lsls	r3, r3, #1
 8002bc6:	fbb0 f0f3 	udiv	r0, r0, r3
 8002bca:	bd08      	pop	{r3, pc}
 8002bcc:	4802      	ldr	r0, [pc, #8]	; (8002bd8 <HAL_RCC_GetSysClockFreq+0x54>)
 8002bce:	e7fc      	b.n	8002bca <HAL_RCC_GetSysClockFreq+0x46>
 8002bd0:	4802      	ldr	r0, [pc, #8]	; (8002bdc <HAL_RCC_GetSysClockFreq+0x58>)
 8002bd2:	e7fa      	b.n	8002bca <HAL_RCC_GetSysClockFreq+0x46>
 8002bd4:	40023800 	.word	0x40023800
 8002bd8:	017d7840 	.word	0x017d7840
 8002bdc:	00f42400 	.word	0x00f42400

08002be0 <HAL_RCC_ClockConfig>:
 8002be0:	e92d 41f0 	stmdb	sp!, {r4, r5, r6, r7, r8, lr}
 8002be4:	460d      	mov	r5, r1
 8002be6:	4604      	mov	r4, r0
 8002be8:	b910      	cbnz	r0, 8002bf0 <HAL_RCC_ClockConfig+0x10>
 8002bea:	2001      	movs	r0, #1
 8002bec:	e8bd 81f0 	ldmia.w	sp!, {r4, r5, r6, r7, r8, pc}
 8002bf0:	4b43      	ldr	r3, [pc, #268]	; (8002d00 <HAL_RCC_ClockConfig+0x120>)
 8002bf2:	681a      	ldr	r2, [r3, #0]
 8002bf4:	f002 0207 	and.w	r2, r2, #7
 8002bf8:	428a      	cmp	r2, r1
 8002bfa:	d328      	bcc.n	8002c4e <HAL_RCC_ClockConfig+0x6e>
 8002bfc:	6821      	ldr	r1, [r4, #0]
 8002bfe:	078f      	lsls	r7, r1, #30
 8002c00:	d42d      	bmi.n	8002c5e <HAL_RCC_ClockConfig+0x7e>
 8002c02:	07c8      	lsls	r0, r1, #31
 8002c04:	d440      	bmi.n	8002c88 <HAL_RCC_ClockConfig+0xa8>
 8002c06:	4b3e      	ldr	r3, [pc, #248]	; (8002d00 <HAL_RCC_ClockConfig+0x120>)
 8002c08:	681a      	ldr	r2, [r3, #0]
 8002c0a:	f002 0207 	and.w	r2, r2, #7
 8002c0e:	42aa      	cmp	r2, r5
 8002c10:	d865      	bhi.n	8002cde <HAL_RCC_ClockConfig+0xfe>
 8002c12:	6822      	ldr	r2, [r4, #0]
 8002c14:	0751      	lsls	r1, r2, #29
 8002c16:	d46b      	bmi.n	8002cf0 <HAL_RCC_ClockConfig+0x110>
 8002c18:	0713      	lsls	r3, r2, #28
 8002c1a:	d507      	bpl.n	8002c2c <HAL_RCC_ClockConfig+0x4c>
 8002c1c:	4a39      	ldr	r2, [pc, #228]	; (8002d04 <HAL_RCC_ClockConfig+0x124>)
 8002c1e:	6921      	ldr	r1, [r4, #16]
 8002c20:	6893      	ldr	r3, [r2, #8]
 8002c22:	f423 4360 	bic.w	r3, r3, #57344	; 0xe000
 8002c26:	ea43 03c1 	orr.w	r3, r3, r1, lsl #3
 8002c2a:	6093      	str	r3, [r2, #8]
 8002c2c:	f7ff ffaa 	bl	8002b84 <HAL_RCC_GetSysClockFreq>
 8002c30:	4b34      	ldr	r3, [pc, #208]	; (8002d04 <HAL_RCC_ClockConfig+0x124>)
 8002c32:	4a35      	ldr	r2, [pc, #212]	; (8002d08 <HAL_RCC_ClockConfig+0x128>)
 8002c34:	689b      	ldr	r3, [r3, #8]
 8002c36:	f3c3 1303 	ubfx	r3, r3, #4, #4
 8002c3a:	5cd3      	ldrb	r3, [r2, r3]
 8002c3c:	40d8      	lsrs	r0, r3
 8002c3e:	4b33      	ldr	r3, [pc, #204]	; (8002d0c <HAL_RCC_ClockConfig+0x12c>)
 8002c40:	6018      	str	r0, [r3, #0]
 8002c42:	4b33      	ldr	r3, [pc, #204]	; (8002d10 <HAL_RCC_ClockConfig+0x130>)
 8002c44:	6818      	ldr	r0, [r3, #0]
 8002c46:	f7ff faa9 	bl	800219c <HAL_InitTick>
 8002c4a:	2000      	movs	r0, #0
 8002c4c:	e7ce      	b.n	8002bec <HAL_RCC_ClockConfig+0xc>
 8002c4e:	b2ca      	uxtb	r2, r1
 8002c50:	701a      	strb	r2, [r3, #0]
 8002c52:	681b      	ldr	r3, [r3, #0]
 8002c54:	f003 0307 	and.w	r3, r3, #7
 8002c58:	428b      	cmp	r3, r1
 8002c5a:	d1c6      	bne.n	8002bea <HAL_RCC_ClockConfig+0xa>
 8002c5c:	e7ce      	b.n	8002bfc <HAL_RCC_ClockConfig+0x1c>
 8002c5e:	4b29      	ldr	r3, [pc, #164]	; (8002d04 <HAL_RCC_ClockConfig+0x124>)
 8002c60:	f011 0f04 	tst.w	r1, #4
 8002c64:	bf1e      	ittt	ne
 8002c66:	689a      	ldrne	r2, [r3, #8]
 8002c68:	f442 52e0 	orrne.w	r2, r2, #7168	; 0x1c00
 8002c6c:	609a      	strne	r2, [r3, #8]
 8002c6e:	070e      	lsls	r6, r1, #28
 8002c70:	bf42      	ittt	mi
 8002c72:	689a      	ldrmi	r2, [r3, #8]
 8002c74:	f442 4260 	orrmi.w	r2, r2, #57344	; 0xe000
 8002c78:	609a      	strmi	r2, [r3, #8]
 8002c7a:	689a      	ldr	r2, [r3, #8]
 8002c7c:	68a0      	ldr	r0, [r4, #8]
 8002c7e:	f022 02f0 	bic.w	r2, r2, #240	; 0xf0
 8002c82:	4302      	orrs	r2, r0
 8002c84:	609a      	str	r2, [r3, #8]
 8002c86:	e7bc      	b.n	8002c02 <HAL_RCC_ClockConfig+0x22>
 8002c88:	6862      	ldr	r2, [r4, #4]
 8002c8a:	4b1e      	ldr	r3, [pc, #120]	; (8002d04 <HAL_RCC_ClockConfig+0x124>)
 8002c8c:	2a01      	cmp	r2, #1
 8002c8e:	d11c      	bne.n	8002cca <HAL_RCC_ClockConfig+0xea>
 8002c90:	681b      	ldr	r3, [r3, #0]
 8002c92:	f413 3f00 	tst.w	r3, #131072	; 0x20000
 8002c96:	d0a8      	beq.n	8002bea <HAL_RCC_ClockConfig+0xa>
 8002c98:	4e1a      	ldr	r6, [pc, #104]	; (8002d04 <HAL_RCC_ClockConfig+0x124>)
 8002c9a:	68b3      	ldr	r3, [r6, #8]
 8002c9c:	f023 0303 	bic.w	r3, r3, #3
 8002ca0:	4313      	orrs	r3, r2
 8002ca2:	60b3      	str	r3, [r6, #8]
 8002ca4:	f7ff fac4 	bl	8002230 <HAL_GetTick>
 8002ca8:	f241 3888 	movw	r8, #5000	; 0x1388
 8002cac:	4607      	mov	r7, r0
 8002cae:	68b3      	ldr	r3, [r6, #8]
 8002cb0:	6862      	ldr	r2, [r4, #4]
 8002cb2:	f003 030c 	and.w	r3, r3, #12
 8002cb6:	ebb3 0f82 	cmp.w	r3, r2, lsl #2
 8002cba:	d0a4      	beq.n	8002c06 <HAL_RCC_ClockConfig+0x26>
 8002cbc:	f7ff fab8 	bl	8002230 <HAL_GetTick>
 8002cc0:	1bc0      	subs	r0, r0, r7
 8002cc2:	4540      	cmp	r0, r8
 8002cc4:	d9f3      	bls.n	8002cae <HAL_RCC_ClockConfig+0xce>
 8002cc6:	2003      	movs	r0, #3
 8002cc8:	e790      	b.n	8002bec <HAL_RCC_ClockConfig+0xc>
 8002cca:	1e91      	subs	r1, r2, #2
 8002ccc:	2901      	cmp	r1, #1
 8002cce:	681b      	ldr	r3, [r3, #0]
 8002cd0:	d802      	bhi.n	8002cd8 <HAL_RCC_ClockConfig+0xf8>
 8002cd2:	f013 7f00 	tst.w	r3, #33554432	; 0x2000000
 8002cd6:	e7de      	b.n	8002c96 <HAL_RCC_ClockConfig+0xb6>
 8002cd8:	f013 0f02 	tst.w	r3, #2
 8002cdc:	e7db      	b.n	8002c96 <HAL_RCC_ClockConfig+0xb6>
 8002cde:	b2ea      	uxtb	r2, r5
 8002ce0:	701a      	strb	r2, [r3, #0]
 8002ce2:	681b      	ldr	r3, [r3, #0]
 8002ce4:	f003 0307 	and.w	r3, r3, #7
 8002ce8:	42ab      	cmp	r3, r5
 8002cea:	f47f af7e 	bne.w	8002bea <HAL_RCC_ClockConfig+0xa>
 8002cee:	e790      	b.n	8002c12 <HAL_RCC_ClockConfig+0x32>
 8002cf0:	4904      	ldr	r1, [pc, #16]	; (8002d04 <HAL_RCC_ClockConfig+0x124>)
 8002cf2:	68e0      	ldr	r0, [r4, #12]
 8002cf4:	688b      	ldr	r3, [r1, #8]
 8002cf6:	f423 53e0 	bic.w	r3, r3, #7168	; 0x1c00
 8002cfa:	4303      	orrs	r3, r0
 8002cfc:	608b      	str	r3, [r1, #8]
 8002cfe:	e78b      	b.n	8002c18 <HAL_RCC_ClockConfig+0x38>
 8002d00:	40023c00 	.word	0x40023c00
 8002d04:	40023800 	.word	0x40023800
 8002d08:	08003294 	.word	0x08003294
 8002d0c:	20000000 	.word	0x20000000
 8002d10:	2000000c 	.word	0x2000000c

08002d14 <HAL_RCC_DeInit>:
 8002d14:	b570      	push	{r4, r5, r6, lr}
 8002d16:	4c41      	ldr	r4, [pc, #260]	; (8002e1c <HAL_RCC_DeInit+0x108>)
 8002d18:	f7ff fa8a 	bl	8002230 <HAL_GetTick>
 8002d1c:	6823      	ldr	r3, [r4, #0]
 8002d1e:	f043 0301 	orr.w	r3, r3, #1
 8002d22:	4605      	mov	r5, r0
 8002d24:	6023      	str	r3, [r4, #0]
 8002d26:	6823      	ldr	r3, [r4, #0]
 8002d28:	0798      	lsls	r0, r3, #30
 8002d2a:	d558      	bpl.n	8002dde <HAL_RCC_DeInit+0xca>
 8002d2c:	6823      	ldr	r3, [r4, #0]
 8002d2e:	f043 0380 	orr.w	r3, r3, #128	; 0x80
 8002d32:	6023      	str	r3, [r4, #0]
 8002d34:	f7ff fa7c 	bl	8002230 <HAL_GetTick>
 8002d38:	2300      	movs	r3, #0
 8002d3a:	60a3      	str	r3, [r4, #8]
 8002d3c:	4c37      	ldr	r4, [pc, #220]	; (8002e1c <HAL_RCC_DeInit+0x108>)
 8002d3e:	4605      	mov	r5, r0
 8002d40:	f241 3688 	movw	r6, #5000	; 0x1388
 8002d44:	68a3      	ldr	r3, [r4, #8]
 8002d46:	f013 0f0c 	tst.w	r3, #12
 8002d4a:	d14f      	bne.n	8002dec <HAL_RCC_DeInit+0xd8>
 8002d4c:	f7ff fa70 	bl	8002230 <HAL_GetTick>
 8002d50:	6823      	ldr	r3, [r4, #0]
 8002d52:	f423 2350 	bic.w	r3, r3, #851968	; 0xd0000
 8002d56:	6023      	str	r3, [r4, #0]
 8002d58:	4c30      	ldr	r4, [pc, #192]	; (8002e1c <HAL_RCC_DeInit+0x108>)
 8002d5a:	4605      	mov	r5, r0
 8002d5c:	6823      	ldr	r3, [r4, #0]
 8002d5e:	0399      	lsls	r1, r3, #14
 8002d60:	d44a      	bmi.n	8002df8 <HAL_RCC_DeInit+0xe4>
 8002d62:	f7ff fa65 	bl	8002230 <HAL_GetTick>
 8002d66:	6823      	ldr	r3, [r4, #0]
 8002d68:	f023 7380 	bic.w	r3, r3, #16777216	; 0x1000000
 8002d6c:	6023      	str	r3, [r4, #0]
 8002d6e:	4c2b      	ldr	r4, [pc, #172]	; (8002e1c <HAL_RCC_DeInit+0x108>)
 8002d70:	4605      	mov	r5, r0
 8002d72:	6823      	ldr	r3, [r4, #0]
 8002d74:	019a      	lsls	r2, r3, #6
 8002d76:	d445      	bmi.n	8002e04 <HAL_RCC_DeInit+0xf0>
 8002d78:	f7ff fa5a 	bl	8002230 <HAL_GetTick>
 8002d7c:	6823      	ldr	r3, [r4, #0]
 8002d7e:	f023 6380 	bic.w	r3, r3, #67108864	; 0x4000000
 8002d82:	6023      	str	r3, [r4, #0]
 8002d84:	4c25      	ldr	r4, [pc, #148]	; (8002e1c <HAL_RCC_DeInit+0x108>)
 8002d86:	4605      	mov	r5, r0
 8002d88:	6823      	ldr	r3, [r4, #0]
 8002d8a:	011b      	lsls	r3, r3, #4
 8002d8c:	d440      	bmi.n	8002e10 <HAL_RCC_DeInit+0xfc>
 8002d8e:	4b24      	ldr	r3, [pc, #144]	; (8002e20 <HAL_RCC_DeInit+0x10c>)
 8002d90:	6063      	str	r3, [r4, #4]
 8002d92:	4b24      	ldr	r3, [pc, #144]	; (8002e24 <HAL_RCC_DeInit+0x110>)
 8002d94:	f8c4 3084 	str.w	r3, [r4, #132]	; 0x84
 8002d98:	68e3      	ldr	r3, [r4, #12]
 8002d9a:	4a23      	ldr	r2, [pc, #140]	; (8002e28 <HAL_RCC_DeInit+0x114>)
 8002d9c:	f423 53f8 	bic.w	r3, r3, #7936	; 0x1f00
 8002da0:	60e3      	str	r3, [r4, #12]
 8002da2:	68e3      	ldr	r3, [r4, #12]
 8002da4:	f423 5300 	bic.w	r3, r3, #8192	; 0x2000
 8002da8:	60e3      	str	r3, [r4, #12]
 8002daa:	68e3      	ldr	r3, [r4, #12]
 8002dac:	f443 031f 	orr.w	r3, r3, #10420224	; 0x9f0000
 8002db0:	60e3      	str	r3, [r4, #12]
 8002db2:	68e3      	ldr	r3, [r4, #12]
 8002db4:	f443 1300 	orr.w	r3, r3, #2097152	; 0x200000
 8002db8:	60e3      	str	r3, [r4, #12]
 8002dba:	6f63      	ldr	r3, [r4, #116]	; 0x74
 8002dbc:	f023 0301 	bic.w	r3, r3, #1
 8002dc0:	6763      	str	r3, [r4, #116]	; 0x74
 8002dc2:	6f63      	ldr	r3, [r4, #116]	; 0x74
 8002dc4:	f043 7380 	orr.w	r3, r3, #16777216	; 0x1000000
 8002dc8:	6763      	str	r3, [r4, #116]	; 0x74
 8002dca:	4b18      	ldr	r3, [pc, #96]	; (8002e2c <HAL_RCC_DeInit+0x118>)
 8002dcc:	601a      	str	r2, [r3, #0]
 8002dce:	4b18      	ldr	r3, [pc, #96]	; (8002e30 <HAL_RCC_DeInit+0x11c>)
 8002dd0:	6818      	ldr	r0, [r3, #0]
 8002dd2:	f7ff f9e3 	bl	800219c <HAL_InitTick>
 8002dd6:	3800      	subs	r0, #0
 8002dd8:	bf18      	it	ne
 8002dda:	2001      	movne	r0, #1
 8002ddc:	e005      	b.n	8002dea <HAL_RCC_DeInit+0xd6>
 8002dde:	f7ff fa27 	bl	8002230 <HAL_GetTick>
 8002de2:	1b40      	subs	r0, r0, r5
 8002de4:	2802      	cmp	r0, #2
 8002de6:	d99e      	bls.n	8002d26 <HAL_RCC_DeInit+0x12>
 8002de8:	2003      	movs	r0, #3
 8002dea:	bd70      	pop	{r4, r5, r6, pc}
 8002dec:	f7ff fa20 	bl	8002230 <HAL_GetTick>
 8002df0:	1b40      	subs	r0, r0, r5
 8002df2:	42b0      	cmp	r0, r6
 8002df4:	d9a6      	bls.n	8002d44 <HAL_RCC_DeInit+0x30>
 8002df6:	e7f7      	b.n	8002de8 <HAL_RCC_DeInit+0xd4>
 8002df8:	f7ff fa1a 	bl	8002230 <HAL_GetTick>
 8002dfc:	1b40      	subs	r0, r0, r5
 8002dfe:	2864      	cmp	r0, #100	; 0x64
 8002e00:	d9ac      	bls.n	8002d5c <HAL_RCC_DeInit+0x48>
 8002e02:	e7f1      	b.n	8002de8 <HAL_RCC_DeInit+0xd4>
 8002e04:	f7ff fa14 	bl	8002230 <HAL_GetTick>
 8002e08:	1b40      	subs	r0, r0, r5
 8002e0a:	2802      	cmp	r0, #2
 8002e0c:	d9b1      	bls.n	8002d72 <HAL_RCC_DeInit+0x5e>
 8002e0e:	e7eb      	b.n	8002de8 <HAL_RCC_DeInit+0xd4>
 8002e10:	f7ff fa0e 	bl	8002230 <HAL_GetTick>
 8002e14:	1b40      	subs	r0, r0, r5
 8002e16:	2802      	cmp	r0, #2
 8002e18:	d9b6      	bls.n	8002d88 <HAL_RCC_DeInit+0x74>
 8002e1a:	e7e5      	b.n	8002de8 <HAL_RCC_DeInit+0xd4>
 8002e1c:	40023800 	.word	0x40023800
 8002e20:	04003010 	.word	0x04003010
 8002e24:	20003000 	.word	0x20003000
 8002e28:	00f42400 	.word	0x00f42400
 8002e2c:	20000000 	.word	0x20000000
 8002e30:	2000000c 	.word	0x2000000c

08002e34 <SPI_WaitFlagStateUntilTimeout>:
 8002e34:	e92d 47f3 	stmdb	sp!, {r0, r1, r4, r5, r6, r7, r8, r9, sl, lr}
 8002e38:	461f      	mov	r7, r3
 8002e3a:	4689      	mov	r9, r1
 8002e3c:	4690      	mov	r8, r2
 8002e3e:	4604      	mov	r4, r0
 8002e40:	f7ff f9f6 	bl	8002230 <HAL_GetTick>
 8002e44:	9d0a      	ldr	r5, [sp, #40]	; 0x28
 8002e46:	443d      	add	r5, r7
 8002e48:	1a2d      	subs	r5, r5, r0
 8002e4a:	f7ff f9f1 	bl	8002230 <HAL_GetTick>
 8002e4e:	4b26      	ldr	r3, [pc, #152]	; (8002ee8 <SPI_WaitFlagStateUntilTimeout+0xb4>)
 8002e50:	681e      	ldr	r6, [r3, #0]
 8002e52:	f3c6 36cb 	ubfx	r6, r6, #15, #12
 8002e56:	436e      	muls	r6, r5
 8002e58:	4682      	mov	sl, r0
 8002e5a:	9601      	str	r6, [sp, #4]
 8002e5c:	6822      	ldr	r2, [r4, #0]
 8002e5e:	6893      	ldr	r3, [r2, #8]
 8002e60:	ea39 0303 	bics.w	r3, r9, r3
 8002e64:	bf0c      	ite	eq
 8002e66:	2301      	moveq	r3, #1
 8002e68:	2300      	movne	r3, #0
 8002e6a:	4543      	cmp	r3, r8
 8002e6c:	d101      	bne.n	8002e72 <SPI_WaitFlagStateUntilTimeout+0x3e>
 8002e6e:	2000      	movs	r0, #0
 8002e70:	e02e      	b.n	8002ed0 <SPI_WaitFlagStateUntilTimeout+0x9c>
 8002e72:	1c7b      	adds	r3, r7, #1
 8002e74:	d0f3      	beq.n	8002e5e <SPI_WaitFlagStateUntilTimeout+0x2a>
 8002e76:	f7ff f9db 	bl	8002230 <HAL_GetTick>
 8002e7a:	eba0 000a 	sub.w	r0, r0, sl
 8002e7e:	42a8      	cmp	r0, r5
 8002e80:	d329      	bcc.n	8002ed6 <SPI_WaitFlagStateUntilTimeout+0xa2>
 8002e82:	6823      	ldr	r3, [r4, #0]
 8002e84:	685a      	ldr	r2, [r3, #4]
 8002e86:	f022 02e0 	bic.w	r2, r2, #224	; 0xe0
 8002e8a:	605a      	str	r2, [r3, #4]
 8002e8c:	6862      	ldr	r2, [r4, #4]
 8002e8e:	f5b2 7f82 	cmp.w	r2, #260	; 0x104
 8002e92:	d10a      	bne.n	8002eaa <SPI_WaitFlagStateUntilTimeout+0x76>
 8002e94:	68a2      	ldr	r2, [r4, #8]
 8002e96:	f5b2 4f00 	cmp.w	r2, #32768	; 0x8000
 8002e9a:	d002      	beq.n	8002ea2 <SPI_WaitFlagStateUntilTimeout+0x6e>
 8002e9c:	f5b2 6f80 	cmp.w	r2, #1024	; 0x400
 8002ea0:	d103      	bne.n	8002eaa <SPI_WaitFlagStateUntilTimeout+0x76>
 8002ea2:	681a      	ldr	r2, [r3, #0]
 8002ea4:	f022 0240 	bic.w	r2, r2, #64	; 0x40
 8002ea8:	601a      	str	r2, [r3, #0]
 8002eaa:	6aa2      	ldr	r2, [r4, #40]	; 0x28
 8002eac:	f5b2 5f00 	cmp.w	r2, #8192	; 0x2000
 8002eb0:	d107      	bne.n	8002ec2 <SPI_WaitFlagStateUntilTimeout+0x8e>
 8002eb2:	681a      	ldr	r2, [r3, #0]
 8002eb4:	f422 5200 	bic.w	r2, r2, #8192	; 0x2000
 8002eb8:	601a      	str	r2, [r3, #0]
 8002eba:	681a      	ldr	r2, [r3, #0]
 8002ebc:	f442 5200 	orr.w	r2, r2, #8192	; 0x2000
 8002ec0:	601a      	str	r2, [r3, #0]
 8002ec2:	2301      	movs	r3, #1
 8002ec4:	f884 3051 	strb.w	r3, [r4, #81]	; 0x51
 8002ec8:	2300      	movs	r3, #0
 8002eca:	f884 3050 	strb.w	r3, [r4, #80]	; 0x50
 8002ece:	2003      	movs	r0, #3
 8002ed0:	b002      	add	sp, #8
 8002ed2:	e8bd 87f0 	ldmia.w	sp!, {r4, r5, r6, r7, r8, r9, sl, pc}
 8002ed6:	9b01      	ldr	r3, [sp, #4]
 8002ed8:	2b00      	cmp	r3, #0
 8002eda:	9b01      	ldr	r3, [sp, #4]
 8002edc:	f103 33ff 	add.w	r3, r3, #4294967295	; 0xffffffff
 8002ee0:	bf08      	it	eq
 8002ee2:	2500      	moveq	r5, #0
 8002ee4:	9301      	str	r3, [sp, #4]
 8002ee6:	e7b9      	b.n	8002e5c <SPI_WaitFlagStateUntilTimeout+0x28>
 8002ee8:	20000000 	.word	0x20000000

08002eec <SPI_EndRxTxTransaction>:
 8002eec:	b570      	push	{r4, r5, r6, lr}
 8002eee:	b086      	sub	sp, #24
 8002ef0:	460b      	mov	r3, r1
 8002ef2:	9200      	str	r2, [sp, #0]
 8002ef4:	9103      	str	r1, [sp, #12]
 8002ef6:	4616      	mov	r6, r2
 8002ef8:	2102      	movs	r1, #2
 8002efa:	2201      	movs	r2, #1
 8002efc:	4604      	mov	r4, r0
 8002efe:	f7ff ff99 	bl	8002e34 <SPI_WaitFlagStateUntilTimeout>
 8002f02:	9b03      	ldr	r3, [sp, #12]
 8002f04:	4605      	mov	r5, r0
 8002f06:	b128      	cbz	r0, 8002f14 <SPI_EndRxTxTransaction+0x28>
 8002f08:	6d63      	ldr	r3, [r4, #84]	; 0x54
 8002f0a:	f043 0320 	orr.w	r3, r3, #32
 8002f0e:	6563      	str	r3, [r4, #84]	; 0x54
 8002f10:	2503      	movs	r5, #3
 8002f12:	e014      	b.n	8002f3e <SPI_EndRxTxTransaction+0x52>
 8002f14:	4a11      	ldr	r2, [pc, #68]	; (8002f5c <SPI_EndRxTxTransaction+0x70>)
 8002f16:	6810      	ldr	r0, [r2, #0]
 8002f18:	4a11      	ldr	r2, [pc, #68]	; (8002f60 <SPI_EndRxTxTransaction+0x74>)
 8002f1a:	fbb0 f0f2 	udiv	r0, r0, r2
 8002f1e:	f44f 727a 	mov.w	r2, #1000	; 0x3e8
 8002f22:	4350      	muls	r0, r2
 8002f24:	6862      	ldr	r2, [r4, #4]
 8002f26:	9005      	str	r0, [sp, #20]
 8002f28:	f5b2 7f82 	cmp.w	r2, #260	; 0x104
 8002f2c:	d10a      	bne.n	8002f44 <SPI_EndRxTxTransaction+0x58>
 8002f2e:	9600      	str	r6, [sp, #0]
 8002f30:	462a      	mov	r2, r5
 8002f32:	2180      	movs	r1, #128	; 0x80
 8002f34:	4620      	mov	r0, r4
 8002f36:	f7ff ff7d 	bl	8002e34 <SPI_WaitFlagStateUntilTimeout>
 8002f3a:	2800      	cmp	r0, #0
 8002f3c:	d1e4      	bne.n	8002f08 <SPI_EndRxTxTransaction+0x1c>
 8002f3e:	4628      	mov	r0, r5
 8002f40:	b006      	add	sp, #24
 8002f42:	bd70      	pop	{r4, r5, r6, pc}
 8002f44:	9b05      	ldr	r3, [sp, #20]
 8002f46:	2b00      	cmp	r3, #0
 8002f48:	d0f9      	beq.n	8002f3e <SPI_EndRxTxTransaction+0x52>
 8002f4a:	9b05      	ldr	r3, [sp, #20]
 8002f4c:	3b01      	subs	r3, #1
 8002f4e:	9305      	str	r3, [sp, #20]
 8002f50:	6823      	ldr	r3, [r4, #0]
 8002f52:	689b      	ldr	r3, [r3, #8]
 8002f54:	061b      	lsls	r3, r3, #24
 8002f56:	d4f5      	bmi.n	8002f44 <SPI_EndRxTxTransaction+0x58>
 8002f58:	e7f1      	b.n	8002f3e <SPI_EndRxTxTransaction+0x52>
 8002f5a:	bf00      	nop
 8002f5c:	20000000 	.word	0x20000000
 8002f60:	016e3600 	.word	0x016e3600

08002f64 <HAL_SPI_Init>:
 8002f64:	b510      	push	{r4, lr}
 8002f66:	4604      	mov	r4, r0
 8002f68:	2800      	cmp	r0, #0
 8002f6a:	d055      	beq.n	8003018 <HAL_SPI_Init+0xb4>
 8002f6c:	6a43      	ldr	r3, [r0, #36]	; 0x24
 8002f6e:	2b00      	cmp	r3, #0
 8002f70:	d14e      	bne.n	8003010 <HAL_SPI_Init+0xac>
 8002f72:	6842      	ldr	r2, [r0, #4]
 8002f74:	f5b2 7f82 	cmp.w	r2, #260	; 0x104
 8002f78:	d000      	beq.n	8002f7c <HAL_SPI_Init+0x18>
 8002f7a:	61c3      	str	r3, [r0, #28]
 8002f7c:	2300      	movs	r3, #0
 8002f7e:	62a3      	str	r3, [r4, #40]	; 0x28
 8002f80:	f894 3051 	ldrb.w	r3, [r4, #81]	; 0x51
 8002f84:	f003 02ff 	and.w	r2, r3, #255	; 0xff
 8002f88:	b923      	cbnz	r3, 8002f94 <HAL_SPI_Init+0x30>
 8002f8a:	f884 2050 	strb.w	r2, [r4, #80]	; 0x50
 8002f8e:	4620      	mov	r0, r4
 8002f90:	f7fd ff8e 	bl	8000eb0 <HAL_SPI_MspInit>
 8002f94:	6821      	ldr	r1, [r4, #0]
 8002f96:	68a0      	ldr	r0, [r4, #8]
 8002f98:	69a2      	ldr	r2, [r4, #24]
 8002f9a:	2302      	movs	r3, #2
 8002f9c:	f884 3051 	strb.w	r3, [r4, #81]	; 0x51
 8002fa0:	680b      	ldr	r3, [r1, #0]
 8002fa2:	f023 0340 	bic.w	r3, r3, #64	; 0x40
 8002fa6:	600b      	str	r3, [r1, #0]
 8002fa8:	6863      	ldr	r3, [r4, #4]
 8002faa:	f400 4004 	and.w	r0, r0, #33792	; 0x8400
 8002fae:	f403 7382 	and.w	r3, r3, #260	; 0x104
 8002fb2:	4303      	orrs	r3, r0
 8002fb4:	68e0      	ldr	r0, [r4, #12]
 8002fb6:	f400 6000 	and.w	r0, r0, #2048	; 0x800
 8002fba:	4303      	orrs	r3, r0
 8002fbc:	6920      	ldr	r0, [r4, #16]
 8002fbe:	f000 0002 	and.w	r0, r0, #2
 8002fc2:	4303      	orrs	r3, r0
 8002fc4:	6960      	ldr	r0, [r4, #20]
 8002fc6:	f000 0001 	and.w	r0, r0, #1
 8002fca:	4303      	orrs	r3, r0
 8002fcc:	f402 7000 	and.w	r0, r2, #512	; 0x200
 8002fd0:	4303      	orrs	r3, r0
 8002fd2:	69e0      	ldr	r0, [r4, #28]
 8002fd4:	f000 0038 	and.w	r0, r0, #56	; 0x38
 8002fd8:	4303      	orrs	r3, r0
 8002fda:	6a20      	ldr	r0, [r4, #32]
 8002fdc:	f000 0080 	and.w	r0, r0, #128	; 0x80
 8002fe0:	4303      	orrs	r3, r0
 8002fe2:	6aa0      	ldr	r0, [r4, #40]	; 0x28
 8002fe4:	f400 5000 	and.w	r0, r0, #8192	; 0x2000
 8002fe8:	4303      	orrs	r3, r0
 8002fea:	600b      	str	r3, [r1, #0]
 8002fec:	6a63      	ldr	r3, [r4, #36]	; 0x24
 8002fee:	0c12      	lsrs	r2, r2, #16
 8002ff0:	f003 0310 	and.w	r3, r3, #16
 8002ff4:	f002 0204 	and.w	r2, r2, #4
 8002ff8:	431a      	orrs	r2, r3
 8002ffa:	604a      	str	r2, [r1, #4]
 8002ffc:	69cb      	ldr	r3, [r1, #28]
 8002ffe:	f423 6300 	bic.w	r3, r3, #2048	; 0x800
 8003002:	61cb      	str	r3, [r1, #28]
 8003004:	2000      	movs	r0, #0
 8003006:	2301      	movs	r3, #1
 8003008:	6560      	str	r0, [r4, #84]	; 0x54
 800300a:	f884 3051 	strb.w	r3, [r4, #81]	; 0x51
 800300e:	bd10      	pop	{r4, pc}
 8003010:	2300      	movs	r3, #0
 8003012:	e9c0 3304 	strd	r3, r3, [r0, #16]
 8003016:	e7b1      	b.n	8002f7c <HAL_SPI_Init+0x18>
 8003018:	2001      	movs	r0, #1
 800301a:	e7f8      	b.n	800300e <HAL_SPI_Init+0xaa>

0800301c <HAL_SPI_TransmitReceive>:
 800301c:	e92d 43f7 	stmdb	sp!, {r0, r1, r2, r4, r5, r6, r7, r8, r9, lr}
 8003020:	461e      	mov	r6, r3
 8003022:	f890 3050 	ldrb.w	r3, [r0, #80]	; 0x50
 8003026:	f8dd 8028 	ldr.w	r8, [sp, #40]	; 0x28
 800302a:	2b01      	cmp	r3, #1
 800302c:	4604      	mov	r4, r0
 800302e:	460d      	mov	r5, r1
 8003030:	4691      	mov	r9, r2
 8003032:	f000 80e6 	beq.w	8003202 <HAL_SPI_TransmitReceive+0x1e6>
 8003036:	2301      	movs	r3, #1
 8003038:	f880 3050 	strb.w	r3, [r0, #80]	; 0x50
 800303c:	f7ff f8f8 	bl	8002230 <HAL_GetTick>
 8003040:	f894 3051 	ldrb.w	r3, [r4, #81]	; 0x51
 8003044:	6862      	ldr	r2, [r4, #4]
 8003046:	2b01      	cmp	r3, #1
 8003048:	4607      	mov	r7, r0
 800304a:	b2d9      	uxtb	r1, r3
 800304c:	d00a      	beq.n	8003064 <HAL_SPI_TransmitReceive+0x48>
 800304e:	f5b2 7f82 	cmp.w	r2, #260	; 0x104
 8003052:	f040 80d4 	bne.w	80031fe <HAL_SPI_TransmitReceive+0x1e2>
 8003056:	68a3      	ldr	r3, [r4, #8]
 8003058:	2b00      	cmp	r3, #0
 800305a:	f040 80d0 	bne.w	80031fe <HAL_SPI_TransmitReceive+0x1e2>
 800305e:	2904      	cmp	r1, #4
 8003060:	f040 80cd 	bne.w	80031fe <HAL_SPI_TransmitReceive+0x1e2>
 8003064:	b90d      	cbnz	r5, 800306a <HAL_SPI_TransmitReceive+0x4e>
 8003066:	2001      	movs	r0, #1
 8003068:	e06f      	b.n	800314a <HAL_SPI_TransmitReceive+0x12e>
 800306a:	f1b9 0f00 	cmp.w	r9, #0
 800306e:	d0fa      	beq.n	8003066 <HAL_SPI_TransmitReceive+0x4a>
 8003070:	2e00      	cmp	r6, #0
 8003072:	d0f8      	beq.n	8003066 <HAL_SPI_TransmitReceive+0x4a>
 8003074:	f894 3051 	ldrb.w	r3, [r4, #81]	; 0x51
 8003078:	f8c4 9038 	str.w	r9, [r4, #56]	; 0x38
 800307c:	2b04      	cmp	r3, #4
 800307e:	bf1c      	itt	ne
 8003080:	2305      	movne	r3, #5
 8003082:	f884 3051 	strbne.w	r3, [r4, #81]	; 0x51
 8003086:	2300      	movs	r3, #0
 8003088:	6563      	str	r3, [r4, #84]	; 0x54
 800308a:	e9c4 3310 	strd	r3, r3, [r4, #64]	; 0x40
 800308e:	6823      	ldr	r3, [r4, #0]
 8003090:	87e6      	strh	r6, [r4, #62]	; 0x3e
 8003092:	86e6      	strh	r6, [r4, #54]	; 0x36
 8003094:	6819      	ldr	r1, [r3, #0]
 8003096:	87a6      	strh	r6, [r4, #60]	; 0x3c
 8003098:	0649      	lsls	r1, r1, #25
 800309a:	bf58      	it	pl
 800309c:	6819      	ldrpl	r1, [r3, #0]
 800309e:	6325      	str	r5, [r4, #48]	; 0x30
 80030a0:	bf58      	it	pl
 80030a2:	f041 0140 	orrpl.w	r1, r1, #64	; 0x40
 80030a6:	86a6      	strh	r6, [r4, #52]	; 0x34
 80030a8:	bf58      	it	pl
 80030aa:	6019      	strpl	r1, [r3, #0]
 80030ac:	68e1      	ldr	r1, [r4, #12]
 80030ae:	f5b1 6f00 	cmp.w	r1, #2048	; 0x800
 80030b2:	d150      	bne.n	8003156 <HAL_SPI_TransmitReceive+0x13a>
 80030b4:	b10a      	cbz	r2, 80030ba <HAL_SPI_TransmitReceive+0x9e>
 80030b6:	2e01      	cmp	r6, #1
 80030b8:	d107      	bne.n	80030ca <HAL_SPI_TransmitReceive+0xae>
 80030ba:	f835 2b02 	ldrh.w	r2, [r5], #2
 80030be:	60da      	str	r2, [r3, #12]
 80030c0:	8ee3      	ldrh	r3, [r4, #54]	; 0x36
 80030c2:	6325      	str	r5, [r4, #48]	; 0x30
 80030c4:	3b01      	subs	r3, #1
 80030c6:	b29b      	uxth	r3, r3
 80030c8:	86e3      	strh	r3, [r4, #54]	; 0x36
 80030ca:	2501      	movs	r5, #1
 80030cc:	8ee3      	ldrh	r3, [r4, #54]	; 0x36
 80030ce:	b29b      	uxth	r3, r3
 80030d0:	b963      	cbnz	r3, 80030ec <HAL_SPI_TransmitReceive+0xd0>
 80030d2:	8fe3      	ldrh	r3, [r4, #62]	; 0x3e
 80030d4:	b29b      	uxth	r3, r3
 80030d6:	b94b      	cbnz	r3, 80030ec <HAL_SPI_TransmitReceive+0xd0>
 80030d8:	463a      	mov	r2, r7
 80030da:	4641      	mov	r1, r8
 80030dc:	4620      	mov	r0, r4
 80030de:	f7ff ff05 	bl	8002eec <SPI_EndRxTxTransaction>
 80030e2:	2800      	cmp	r0, #0
 80030e4:	d07a      	beq.n	80031dc <HAL_SPI_TransmitReceive+0x1c0>
 80030e6:	2320      	movs	r3, #32
 80030e8:	6563      	str	r3, [r4, #84]	; 0x54
 80030ea:	e7bc      	b.n	8003066 <HAL_SPI_TransmitReceive+0x4a>
 80030ec:	6821      	ldr	r1, [r4, #0]
 80030ee:	688b      	ldr	r3, [r1, #8]
 80030f0:	079a      	lsls	r2, r3, #30
 80030f2:	d50d      	bpl.n	8003110 <HAL_SPI_TransmitReceive+0xf4>
 80030f4:	8ee3      	ldrh	r3, [r4, #54]	; 0x36
 80030f6:	b29b      	uxth	r3, r3
 80030f8:	b153      	cbz	r3, 8003110 <HAL_SPI_TransmitReceive+0xf4>
 80030fa:	b14d      	cbz	r5, 8003110 <HAL_SPI_TransmitReceive+0xf4>
 80030fc:	6b23      	ldr	r3, [r4, #48]	; 0x30
 80030fe:	f833 2b02 	ldrh.w	r2, [r3], #2
 8003102:	60ca      	str	r2, [r1, #12]
 8003104:	6323      	str	r3, [r4, #48]	; 0x30
 8003106:	8ee3      	ldrh	r3, [r4, #54]	; 0x36
 8003108:	3b01      	subs	r3, #1
 800310a:	b29b      	uxth	r3, r3
 800310c:	86e3      	strh	r3, [r4, #54]	; 0x36
 800310e:	2500      	movs	r5, #0
 8003110:	688a      	ldr	r2, [r1, #8]
 8003112:	f012 0201 	ands.w	r2, r2, #1
 8003116:	d00c      	beq.n	8003132 <HAL_SPI_TransmitReceive+0x116>
 8003118:	8fe3      	ldrh	r3, [r4, #62]	; 0x3e
 800311a:	b29b      	uxth	r3, r3
 800311c:	b14b      	cbz	r3, 8003132 <HAL_SPI_TransmitReceive+0x116>
 800311e:	6ba3      	ldr	r3, [r4, #56]	; 0x38
 8003120:	68c9      	ldr	r1, [r1, #12]
 8003122:	f823 1b02 	strh.w	r1, [r3], #2
 8003126:	63a3      	str	r3, [r4, #56]	; 0x38
 8003128:	8fe3      	ldrh	r3, [r4, #62]	; 0x3e
 800312a:	3b01      	subs	r3, #1
 800312c:	b29b      	uxth	r3, r3
 800312e:	87e3      	strh	r3, [r4, #62]	; 0x3e
 8003130:	4615      	mov	r5, r2
 8003132:	f7ff f87d 	bl	8002230 <HAL_GetTick>
 8003136:	1bc0      	subs	r0, r0, r7
 8003138:	4540      	cmp	r0, r8
 800313a:	d3c7      	bcc.n	80030cc <HAL_SPI_TransmitReceive+0xb0>
 800313c:	f1b8 3fff 	cmp.w	r8, #4294967295	; 0xffffffff
 8003140:	d0c4      	beq.n	80030cc <HAL_SPI_TransmitReceive+0xb0>
 8003142:	2301      	movs	r3, #1
 8003144:	f884 3051 	strb.w	r3, [r4, #81]	; 0x51
 8003148:	2003      	movs	r0, #3
 800314a:	2300      	movs	r3, #0
 800314c:	f884 3050 	strb.w	r3, [r4, #80]	; 0x50
 8003150:	b003      	add	sp, #12
 8003152:	e8bd 83f0 	ldmia.w	sp!, {r4, r5, r6, r7, r8, r9, pc}
 8003156:	b10a      	cbz	r2, 800315c <HAL_SPI_TransmitReceive+0x140>
 8003158:	2e01      	cmp	r6, #1
 800315a:	d108      	bne.n	800316e <HAL_SPI_TransmitReceive+0x152>
 800315c:	782a      	ldrb	r2, [r5, #0]
 800315e:	731a      	strb	r2, [r3, #12]
 8003160:	6b23      	ldr	r3, [r4, #48]	; 0x30
 8003162:	3301      	adds	r3, #1
 8003164:	6323      	str	r3, [r4, #48]	; 0x30
 8003166:	8ee3      	ldrh	r3, [r4, #54]	; 0x36
 8003168:	3b01      	subs	r3, #1
 800316a:	b29b      	uxth	r3, r3
 800316c:	86e3      	strh	r3, [r4, #54]	; 0x36
 800316e:	2501      	movs	r5, #1
 8003170:	8ee3      	ldrh	r3, [r4, #54]	; 0x36
 8003172:	b29b      	uxth	r3, r3
 8003174:	b91b      	cbnz	r3, 800317e <HAL_SPI_TransmitReceive+0x162>
 8003176:	8fe3      	ldrh	r3, [r4, #62]	; 0x3e
 8003178:	b29b      	uxth	r3, r3
 800317a:	2b00      	cmp	r3, #0
 800317c:	d0ac      	beq.n	80030d8 <HAL_SPI_TransmitReceive+0xbc>
 800317e:	6822      	ldr	r2, [r4, #0]
 8003180:	6893      	ldr	r3, [r2, #8]
 8003182:	079b      	lsls	r3, r3, #30
 8003184:	d50e      	bpl.n	80031a4 <HAL_SPI_TransmitReceive+0x188>
 8003186:	8ee3      	ldrh	r3, [r4, #54]	; 0x36
 8003188:	b29b      	uxth	r3, r3
 800318a:	b15b      	cbz	r3, 80031a4 <HAL_SPI_TransmitReceive+0x188>
 800318c:	b155      	cbz	r5, 80031a4 <HAL_SPI_TransmitReceive+0x188>
 800318e:	6b23      	ldr	r3, [r4, #48]	; 0x30
 8003190:	781b      	ldrb	r3, [r3, #0]
 8003192:	7313      	strb	r3, [r2, #12]
 8003194:	6b23      	ldr	r3, [r4, #48]	; 0x30
 8003196:	3301      	adds	r3, #1
 8003198:	6323      	str	r3, [r4, #48]	; 0x30
 800319a:	8ee3      	ldrh	r3, [r4, #54]	; 0x36
 800319c:	3b01      	subs	r3, #1
 800319e:	b29b      	uxth	r3, r3
 80031a0:	86e3      	strh	r3, [r4, #54]	; 0x36
 80031a2:	2500      	movs	r5, #0
 80031a4:	6822      	ldr	r2, [r4, #0]
 80031a6:	6891      	ldr	r1, [r2, #8]
 80031a8:	f011 0101 	ands.w	r1, r1, #1
 80031ac:	d00d      	beq.n	80031ca <HAL_SPI_TransmitReceive+0x1ae>
 80031ae:	8fe3      	ldrh	r3, [r4, #62]	; 0x3e
 80031b0:	b29b      	uxth	r3, r3
 80031b2:	b153      	cbz	r3, 80031ca <HAL_SPI_TransmitReceive+0x1ae>
 80031b4:	6ba3      	ldr	r3, [r4, #56]	; 0x38
 80031b6:	68d2      	ldr	r2, [r2, #12]
 80031b8:	701a      	strb	r2, [r3, #0]
 80031ba:	6ba3      	ldr	r3, [r4, #56]	; 0x38
 80031bc:	3301      	adds	r3, #1
 80031be:	63a3      	str	r3, [r4, #56]	; 0x38
 80031c0:	8fe3      	ldrh	r3, [r4, #62]	; 0x3e
 80031c2:	3b01      	subs	r3, #1
 80031c4:	b29b      	uxth	r3, r3
 80031c6:	87e3      	strh	r3, [r4, #62]	; 0x3e
 80031c8:	460d      	mov	r5, r1
 80031ca:	f7ff f831 	bl	8002230 <HAL_GetTick>
 80031ce:	1bc0      	subs	r0, r0, r7
 80031d0:	4540      	cmp	r0, r8
 80031d2:	d3cd      	bcc.n	8003170 <HAL_SPI_TransmitReceive+0x154>
 80031d4:	f1b8 3fff 	cmp.w	r8, #4294967295	; 0xffffffff
 80031d8:	d0ca      	beq.n	8003170 <HAL_SPI_TransmitReceive+0x154>
 80031da:	e7b2      	b.n	8003142 <HAL_SPI_TransmitReceive+0x126>
 80031dc:	68a3      	ldr	r3, [r4, #8]
 80031de:	b933      	cbnz	r3, 80031ee <HAL_SPI_TransmitReceive+0x1d2>
 80031e0:	6823      	ldr	r3, [r4, #0]
 80031e2:	9001      	str	r0, [sp, #4]
 80031e4:	68da      	ldr	r2, [r3, #12]
 80031e6:	9201      	str	r2, [sp, #4]
 80031e8:	689b      	ldr	r3, [r3, #8]
 80031ea:	9301      	str	r3, [sp, #4]
 80031ec:	9b01      	ldr	r3, [sp, #4]
 80031ee:	6d63      	ldr	r3, [r4, #84]	; 0x54
 80031f0:	2b00      	cmp	r3, #0
 80031f2:	f47f af38 	bne.w	8003066 <HAL_SPI_TransmitReceive+0x4a>
 80031f6:	2301      	movs	r3, #1
 80031f8:	f884 3051 	strb.w	r3, [r4, #81]	; 0x51
 80031fc:	e7a5      	b.n	800314a <HAL_SPI_TransmitReceive+0x12e>
 80031fe:	2002      	movs	r0, #2
 8003200:	e7a3      	b.n	800314a <HAL_SPI_TransmitReceive+0x12e>
 8003202:	2002      	movs	r0, #2
 8003204:	e7a4      	b.n	8003150 <HAL_SPI_TransmitReceive+0x134>

08003206 <memset>:
 8003206:	4402      	add	r2, r0
 8003208:	4603      	mov	r3, r0
 800320a:	4293      	cmp	r3, r2
 800320c:	d100      	bne.n	8003210 <memset+0xa>
 800320e:	4770      	bx	lr
 8003210:	f803 1b01 	strb.w	r1, [r3], #1
 8003214:	e7f9      	b.n	800320a <memset+0x4>
	...

08003218 <__libc_init_array>:
 8003218:	b570      	push	{r4, r5, r6, lr}
 800321a:	4d0d      	ldr	r5, [pc, #52]	; (8003250 <__libc_init_array+0x38>)
 800321c:	4c0d      	ldr	r4, [pc, #52]	; (8003254 <__libc_init_array+0x3c>)
 800321e:	1b64      	subs	r4, r4, r5
 8003220:	10a4      	asrs	r4, r4, #2
 8003222:	2600      	movs	r6, #0
 8003224:	42a6      	cmp	r6, r4
 8003226:	d109      	bne.n	800323c <__libc_init_array+0x24>
 8003228:	4d0b      	ldr	r5, [pc, #44]	; (8003258 <__libc_init_array+0x40>)
 800322a:	4c0c      	ldr	r4, [pc, #48]	; (800325c <__libc_init_array+0x44>)
 800322c:	f000 f826 	bl	800327c <_init>
 8003230:	1b64      	subs	r4, r4, r5
 8003232:	10a4      	asrs	r4, r4, #2
 8003234:	2600      	movs	r6, #0
 8003236:	42a6      	cmp	r6, r4
 8003238:	d105      	bne.n	8003246 <__libc_init_array+0x2e>
 800323a:	bd70      	pop	{r4, r5, r6, pc}
 800323c:	f855 3b04 	ldr.w	r3, [r5], #4
 8003240:	4798      	blx	r3
 8003242:	3601      	adds	r6, #1
 8003244:	e7ee      	b.n	8003224 <__libc_init_array+0xc>
 8003246:	f855 3b04 	ldr.w	r3, [r5], #4
 800324a:	4798      	blx	r3
 800324c:	3601      	adds	r6, #1
 800324e:	e7f2      	b.n	8003236 <__libc_init_array+0x1e>
 8003250:	080032cc 	.word	0x080032cc
 8003254:	080032cc 	.word	0x080032cc
 8003258:	080032cc 	.word	0x080032cc
 800325c:	080032d0 	.word	0x080032d0

08003260 <memcpy>:
 8003260:	440a      	add	r2, r1
 8003262:	4291      	cmp	r1, r2
 8003264:	f100 33ff 	add.w	r3, r0, #4294967295	; 0xffffffff
 8003268:	d100      	bne.n	800326c <memcpy+0xc>
 800326a:	4770      	bx	lr
 800326c:	b510      	push	{r4, lr}
 800326e:	f811 4b01 	ldrb.w	r4, [r1], #1
 8003272:	f803 4f01 	strb.w	r4, [r3, #1]!
 8003276:	4291      	cmp	r1, r2
 8003278:	d1f9      	bne.n	800326e <memcpy+0xe>
 800327a:	bd10      	pop	{r4, pc}

0800327c <_init>:
 800327c:	b5f8      	push	{r3, r4, r5, r6, r7, lr}
 800327e:	bf00      	nop
 8003280:	bcf8      	pop	{r3, r4, r5, r6, r7}
 8003282:	bc08      	pop	{r3}
 8003284:	469e      	mov	lr, r3
 8003286:	4770      	bx	lr

08003288 <_fini>:
 8003288:	b5f8      	push	{r3, r4, r5, r6, r7, lr}
 800328a:	bf00      	nop
 800328c:	bcf8      	pop	{r3, r4, r5, r6, r7}
 800328e:	bc08      	pop	{r3}
 8003290:	469e      	mov	lr, r3
 8003292:	4770      	bx	lr
